uid	pubdate	authors	title	fulljournalname	elocationid
39018675	2024 Jul 16	"Huang S, Tan C, Zheng J, Huang Z, Li Z, Lv Z, Chen W, Chen M, Yuan X, Chen C, Yan Q"	Identification of RNMT as an immunotherapeutic and prognostic biomarker: From pan-cancer analysis to lung squamous cell carcinoma validation.	Immunobiology	doi: 10.1016/j.imbio.2024.152836
39015705	2024 Jun 30	"Li X, Wang Y, Li X, Kong L, D√≠ez JJ, Wang H, Zhang D"	"A comprehensive pan-cancer analysis revealing SPAG6 as a novel diagnostic, prognostic and immunological biomarker in tumor."	Gland surgery	doi: 10.21037/gs-24-157
39014450	2024 Jul 16	"Silva MP, Ferreira LT, Br√°s NF, Torres L, Brand√£o A, Pinheiro M, Cardoso M, Resende A, Vieira J, Palmeira C, Martins G, Silva M, Pinto C, Peixoto A, Silva J, Henrique R, Maia S, Maiato H, Teixeira MR, Paulo P"	BUB1B monoallelic germline variants contribute to prostate cancer predisposition by triggering chromosomal instability.	Journal of biomedical science	doi: 10.1186/s12929-024-01056-z
39013484	2024 Jul 14	"Zhou Z, Fan B, Qiu Q, Cheng H, Wang L, Wu Y, Xie J, Ni C, Li N"	Pan-cancer analysis and experimental validation reveal FAM72D as a potential novel biomarker and therapeutic target in lung adenocarcinoma.	Gene	doi: 10.1016/j.gene.2024.148764
39009451	2024 Jul 15	"Thareja G, Salvioni A, Lauzeral-Vizcaino F, Halabi N, Mery-Lamarche E, Thebault N, Scarlata CM, Michelas M, Navarro AS, Ferron G, Lecuru F, Mathevet P, Khalifa J, Ayyoub M, Rafii A, Martinez A"	Assessing the implications of sentinel lymph node removal in cervical cancer: an immunogenetic perspective - a SENTICOL ancillary study.	Journal for immunotherapy of cancer	pii: e008734. doi: 10.1136/jitc-2023-008734
39008196	2024 Jul 15	"Chen C, Li Y, Li Y, Chen Z, Shi P, Xie Y, Qian S"	SNCA is a potential therapeutic target for COVID-19 infection in diffuse large B-cell lymphoma patients.	Apoptosis : an international journal on programmed cell death	doi: 10.1007/s10495-024-01996-9
39007183	2024 Jun 20	"Jaime-Casas S, Barragan-Carrillo R, Tripathi A"	Antibody-drug conjugates in solid tumors: a new frontier.	Current opinion in oncology	doi: 10.1097/CCO.0000000000001064
39006081	2024	"Hu S, Chen Y, Sun B"	Exploring the Prognostic Value and Immune Infiltration Patterns of GPRC5A Across Multiple Cancer Types.	Journal of Cancer	doi: 10.7150/jca.93217
39006068	2024	"Liu Y, Lu T, Li R, Cui L, Xu R, Teng S, Baranenko D, Zhang T, Yang L, Qie R, Xiao D"	"Integrated pan-cancer genomic analysis reveals the role of SLC30A5 in the proliferation, metastasis, and prognosis of hepatocellular carcinoma."	Journal of Cancer	doi: 10.7150/jca.97214
39006026	2024	"Bao Y, Tang Z, Chen R, Yu X, Qi X"	Pan-cancer analysis identifies olfactory receptor family 7 subfamily A member 5 as a potential biomarker for glioma.	PeerJ	doi: 10.7717/peerj.17631
39005672	2024	"Liu Z, Li L, Liu L, Zhu Z, Yu Y, Zhan S, Luo Z, Li Y, Long H, Cai J, Huang K, Du X"	PDK3 drives colorectal carcinogenesis and immune evasion and is a therapeutic target for boosting immunotherapy.	American journal of cancer research	doi: 10.62347/QWKZ3078
39005670	2024	"Hsu HC, Lee YS, Imbang TI, Liu TC, Hung SI"	SLC11A1 predicts the overall survival of patients with colorectal cancer.	American journal of cancer research	doi: 10.62347/VTYU3157
38997639	2024 Jul 12	"Lee JJ, Kang HJ, Kim D, Lim SO, Kim SS, Kim G, Kim S, Lee JK, Kim J"	"expHRD: an individualized, transcriptome-based prediction model for homologous recombination deficiency assessment in cancer."	BMC bioinformatics	doi: 10.1186/s12859-024-05854-y
38995439	2024 Jul 12	"Yin Y, Li Y, Zhang Y, Jia Q, Tang H, Chen J, Ji R"	An analysis of the role of GAB2 in pan-cancer from a multidimensional perspective.	Discover oncology	doi: 10.1007/s12672-024-01135-5
38987531	2024 Jul 10	"Rao Y, Li J, Shi L, Chen X, Hu Y, Mao Y, Zhang X, Liu X"	Silencing CK19 regulates ferroptosis by affecting the expression of GPX4 and ACSL4 in oral squamous cell carcinoma in vivo and in vitro.	Scientific reports	doi: 10.1038/s41598-024-65079-0
38982153	2024 Jul 9	"Cao L, Li F, Cai S, Zhang J, Guo C, Ali S, Zhou J, Jing X, Wang X, Qin Y, Wu F"	Pan-cancer analysis and the oncogenic role of Glypican 1 in hepatocellular carcinoma.	Scientific reports	doi: 10.1038/s41598-024-66838-9
38980931	2024 Jul 9	"Scalera S, Ricciuti B, Marinelli D, Mazzotta M, Cipriani L, Bon G, Schiavoni G, Terrenato I, Di Federico A, Alessi JV, Fanciulli M, Ciuffreda L, De Nicola F, Goeman F, Caravagna G, Santini D, De Maria R, Cappuzzo F, Ciliberto G, Jamal-Hanjani M, Awad MM, McGranahan N, Maugeri-Sacc√† M"	Transcriptional phenocopies of deleterious KEAP1 mutations correlate with survival outcomes in lung cancer treated with immunotherapy.	Clinical cancer research : an official journal of the American Association for Cancer Research	doi: 10.1158/1078-0432.CCR-24-0626
38979944	2024 Jul 15	"Yang C, Ni B, Shen L, Li Z, Zhou L, Wu H, Zhang Y, Liu L, Liu J, Tian L, Yan L, Jin X"	Systematic pan-cancer analysis insights into ICAM1 as an immunological and prognostic biomarker.	FASEB journal : official publication of the Federation of American Societies for Experimental Biology	doi: 10.1096/fj.202302176R
38976216	2024 Jul 8	"Park SW, Han MR"	"A pan-cancer analysis unveiling the function of NR4A family genes in tumor immune microenvironment, prognosis, and drug response."	Genes & genomics	doi: 10.1007/s13258-024-01539-1
38972247	2024	"Carvalho MFL, Calicchio CS, de Almeida BO, de Miranda LBL, Lipreri da Silva JC, Lima K, Machado-Neto JA"	Transcriptomics analysis identified ezrin as a potential druggable target in cervical and gastric cancer cells.	"Clinics (Sao Paulo, Brazil)"	doi: 10.1016/j.clinsp.2024.100422
38970506	2024 Jul 6	"Hu Q, Yue B, Liu J, Gao Y, Huang X, Hu Y"	Pan-Cancer Bioinformatics Indicates ZNF207 is a Promising Prognostic Biomarker and Immunotherapeutic Target.	Journal of leukocyte biology	pii: qiae147. doi: 10.1093/jleuko/qiae147
38970067	2024 Jul 5	"Hua T, Liu DX, Zhang XC, Li ST, Wu JL, Zhao Q, Chen SB"	Establishment of an ovarian cancer exhausted CD8+T cells-related genes model by integrated analysis of scRNA-seq and bulk RNA-seq.	European journal of medical research	doi: 10.1186/s40001-024-01948-8
38968580	2024 Jul 3	"Lai F, Zheng W, Zhong C, Chen Z"	"Pan-cancer analysis of disulfidptosis with potential implications in prognosis, immune microenvironment, and drug resistance in human cancer."	Aging	doi: 10.18632/aging.205993
38967739	2024 Jul 5	"Zheng M, Chen X, Xu Z, Ye Z, Zhong L, Chen Z, Chen G, Cai B"	Comprehensive analysis of PSMG3 in pan-cancer and validation of its role in hepatocellular carcinoma.	Clinical & translational oncology : official publication of the Federation of Spanish Oncology Societies and of the National Cancer Institute of Mexico	doi: 10.1007/s12094-024-03580-8
38965238	2024 Jul 4	"Du B, Wang P, Wei L, Qin K, Pei Z, Zheng J, Wang J"	Unraveling the independent role of METTL3 in m6A modification and tumor progression in esophageal squamous cell carcinoma.	Scientific reports	doi: 10.1038/s41598-024-64517-3
38964031	2024 Jul 3	"Wang J, Guo T, Zhang X, Guo J, Meng X, Yan S, Wang Y, Xiao Y, Xu W, Wei X, Ding K, Zhang J, Mi Y, Wu S, Chen J, Huang Y, Ren S, Hou J"	Comprehensive investigation in oncogenic functions and immunological roles of NCBP2 and its validation in prostate cancer.	Translational oncology	doi: 10.1016/j.tranon.2024.102049
38956906	2024 Jul 2	"Lil X, Chen W, Jiang S, Zhang L, Huang H, Ji Y, Ni Q, Ling C"	Low Expression of SCN4B Predicts Poor Prognosis in Non-Small Cell Lung Cancer.	Current cancer drug targets	doi: 10.2174/0115680096293516240607071915
38952552	2024	"Cui Z, Liu C, Wang X, Xiang Y"	"A pan-cancer analysis of EphA family gene expression and its association with prognosis, tumor microenvironment, and therapeutic targets."	Frontiers in oncology	doi: 10.3389/fonc.2024.1378087
38952160	2024 Jun 28	"Shen J, Gong X, Tan S, Zhang Y, Xia R, Xu S, Wang S, Zhou H, Jiang Y, Zhao T, Zhang Y, Tang H, Wang C"	"CDK1 Acts as a Prognostic Biomarker Associated with Immune Infiltration in Pan-Cancer, Especially in Gastrointestinal Tumors."	Current medicinal chemistry	doi: 10.2174/0109298673322212240620111356
38951221	2024 Jun 29	"Yang M, Deng Y, Ma Y, Song C, Wu Z, Yibulayin X, Sun X, Guo Y, He D"	Comprehensive pan-cancer analysis reveals that C5orf34 regulates the proliferation and mortality of lung cancer.	Functional & integrative genomics	doi: 10.1007/s10142-024-01397-w
38948930	2024	"Wang Y, Seliger B"	Identification of RNA-binding protein hnRNP C targeting the 3'UTR of the TAP-associated glycoprotein tapasin in melanoma.	Oncoimmunology	doi: 10.1080/2162402X.2024.2370928
38947838	2024 Jun 25	"Li Y, Chen H, Zhang B, Liu J, Ma J, Ma W, Lu S"	TMEM147: A Promising Cancer Biomarker Associated with Immune Cell Infiltration and Prognosis in LIHC-Insights from a Comprehensive Pan-Cancer Genomic Analysis.	ACS omega	doi: 10.1021/acsomega.4c01215
38944166	2024 Jun 27	"Yin YF, Jia QY, Yao HF, Zhu YH, Zheng JH, Duan ZH, Hu CY, Sun YW, Liu DJ, Huo YM, Liu W"	OCIAD2 promotes pancreatic cancer progression through the AKT signaling pathway.	Gene	doi: 10.1016/j.gene.2024.148735
38934284	2024 Jun 26	"Qiu G, Song C, Lou M, Lin J"	"Decoding the Expressions, Immune Relevance, and Prognostic Values of Ferroptosis Gene TMEM189: A Pan-Cancer Analysis."	Current cancer drug targets	doi: 10.2174/0115680096308701240605114342
38927888	2024 Jun 10	"Cardoso-Carneiro D, Pinheiro J, Font√£o P, Nogueira R, Gabriela-Freitas M, Raquel-Cunha A, Mendes A, Longatto-Filho A, Marques F, Moreira MAR, Reis RM, Martinho O"	Unveiling the RKIP and EGFR Inverse Relationship in Solid Tumors: A Case Study in Cervical Cancer.	Cancers	doi: 10.3390/cancers16122182
38927080	2024 Jun 10	"He Y, Hu Y, Cheng Y, Li X, Chen C, Zhang S, He H, Cao F"	Multi-Omics Insights into Disulfidptosis-Related Genes Reveal RPN1 as a Therapeutic Target for Liver Cancer.	Biomolecules	doi: 10.3390/biom14060677
38926967	2024 Jun	"Qian H, Yuan HL, Zhang T, Yang YW, Feng JF"	"[Clinical Significance of Serum ADA Combined with GLB, CREA, Œ≤(2)-MG and HGB in Newly Diagnosed Multiple Myeloma]."	Zhongguo shi yan xue ye xue za zhi	doi: 10.19746/j.cnki.issn.1009-2137.2024.03.019
38923758	2024 Jun	"Tan X, Li G, Deng H, Xiao G, Wang Y, Zhang C, Chen Y"	Obesity enhances the response to neoadjuvant anti-PD1 therapy in oral tongue squamous cell carcinoma.	Cancer medicine	doi: 10.1002/cam4.7346
38919375	2024	"Klockner TC, Campbell CS"	Selection forces underlying aneuploidy patterns in cancer.	Molecular & cellular oncology	doi: 10.1080/23723556.2024.2369388
38918441	2024 Jun 25	"Ye Z, Zhong Y, Zhang Z"	"Pan-cancer multi-omics analysis of PTBP1 reveals it as an inflammatory, progressive and prognostic marker in glioma."	Scientific reports	doi: 10.1038/s41598-024-64979-5
38917176	2024	"Wang C, Zhu X, Zheng M, Chen Y, Jiang R, He X, Liu Z, Lu Z, Wang Z, Yang Y"	Pan-cancer analysis of PSCA that is associated with immune infiltration and affects patient prognosis.	PloS one	doi: 10.1371/journal.pone.0298469
38914792	2024 Jun 24	"Qin L, Li S, Cao X, Huang T, Liu Y, Chen O"	Potential diagnostic biomarkers for immunogenic cell death in elderly female patients with ischemic stroke: identification and analysis.	Scientific reports	doi: 10.1038/s41598-024-65390-w
38913914	2024 Jun 21	"Liu J, Li H, Dong Q, Liang Z"	Multi omics analysis of mitophagy subtypes and integration of machine learning for predicting immunotherapy responses in head and neck squamous cell carcinoma.	Aging	doi: 10.18632/aging.205964
38911388	2024	"Wu Z, Song S, Zhou J, Zhang Q, Yu J"	Pan-Cancer Analysis of ART1 and its Potential Value in Gastric Cancer.	Journal of Cancer	doi: 10.7150/jca.96033
38911386	2024	"Xu X, Hei Y, Wang B, Tian S, Chen X, Zhang J, Wang F"	TXNDC12 inhibits pancreatic tumor cells ferroptosis by regulating GSH/GGT7 and promotes its growth and metastasis.	Journal of Cancer	doi: 10.7150/jca.93208
38911364	2024	"Wei M, Zhou G, Chen L, Zhang Y, Ma W, Gao L, Gao G"	The prognostic and immune significance of PLBD1 in pan-cancer and its roles in proliferation and invasion of glioma.	Journal of Cancer	doi: 10.7150/jca.96365
38910478	2024 Jun 20	"Jiang J, Lu J, Feng Y, Zhao Y, Su J, Zeng T, Chen Y, Shen K, Jia Y, Lin S"	Identification of KRT80 as a Novel Prognostic and Predictive Biomarker of Human Lung Adenocarcinoma via Bioinformatics Approaches.	Combinatorial chemistry & high throughput screening	doi: 10.2174/0113862073294339240603103623
38907941	2024 Jun 22	"Ghosh S, Goswami D, Dutta R, Ghatak D, De R"	A Comprehensive Pan-Cancer Analysis of Cytochrome C Oxidase Assembly Factor 1 (COA1) Reveals Instrumental Role of Mitochondrial Protein Assembly in Cancer that Modulates Disease Progression and Prognostic Outcome.	Cell biochemistry and biophysics	doi: 10.1007/s12013-024-01366-x
38904676	2024 Jun 21	"Shenoy US, Basavarajappa DS, Kabekkodu SP, Radhakrishnan R"	Pan-cancer exploration of oncogenic and clinical impacts revealed that HOXA9 is a diagnostic indicator of tumorigenesis.	Clinical and experimental medicine	doi: 10.1007/s10238-024-01389-x
38903527	2024	"Chen J, Chen R, Huang J"	A pan-cancer single-cell transcriptional analysis of antigen-presenting cancer-associated fibroblasts in the tumor microenvironment.	Frontiers in immunology	doi: 10.3389/fimmu.2024.1372432
38902578	2024 Jun 20	"Zhang G, Lu S, Ren Z, Wei L, Chen C, Tao P, Pan X"	SIRT2 as a Potential Biomarker in Lung Adenocarcinoma: Implications for Immune Infiltration.	Molecular biotechnology	doi: 10.1007/s12033-024-01198-3
38900401	2024 Jun 20	"Zan Y, Ding Y"	Pancancer Analysis of NSUN2 with a Focus on Prognostic and Immunological Roles in Endometrial Cancer.	"Reproductive sciences (Thousand Oaks, Calif.)"	doi: 10.1007/s43032-024-01625-5
38899748	2024 Jun	"Chen Q, Gao F, Wu J, Zhang K, Du T, Chen Y, Cai R, Zhao D, Deng R, Tang J"	Comprehensive pan-cancer analysis of mitochondrial outer membrane permeabilisation activity reveals positive immunomodulation and assists in identifying potential therapeutic targets for immunotherapy resistance.	Clinical and translational medicine	doi: 10.1002/ctm2.1735
38894777	2024 May	"Salem A, Ahmed S, Khalfallah M, Hamadan N, ElShikh W, Alfaki M"	A Comprehensive Pan-Cancer Analysis Reveals Cyclin-Dependent Kinase Inhibitor 2A Gene as a Potential Diagnostic and Prognostic Biomarker in Colon Adenocarcinoma.	Cureus	doi: 10.7759/cureus.60586
38890718	2024 Jun 18	"Noh K, Choi H, Jo EH, Yoo W, Park KC"	Role of SYT11 in human pan-cancer using comprehensive approaches.	European journal of medical research	doi: 10.1186/s40001-024-01931-3
38887832	2024 Jun 17	"Sah B, Singh J, Shen Y, Goldfarb N, Samie FH, Geskin LJ, Liu L"	Loss of CELF2 promotes skin tumorigenesis and increases drug resistance.	International journal of dermatology	doi: 10.1111/ijd.17295
38886862	2024 Jun 17	"Yan T, Pang X, Liang B, Meng Q, Wei H, Li W, Liu D, Hu Y"	Comprehensive bioinformatics analysis of human cytomegalovirus pathway genes in pan-cancer.	Human genomics	doi: 10.1186/s40246-024-00633-5
38886487	2024 Jun 17	"Blanchett R, Lau KH, Pfeifer GP"	Homeobox and Polycomb target gene methylation in human solid tumors.	Scientific reports	doi: 10.1038/s41598-024-64569-5
38886133	2024 Aug	"Li Y, Fei H, Xiao Z, Lu X, Zhang H, Liu M"	Comprehensive analysis of EphA2 in pan-cancer: A prognostic biomarker associated with cancer immunity.	Clinical and experimental pharmacology & physiology	doi: 10.1111/1440-1681.13902
38883368	2024	"Pan J, Mahsud I, Ul Haq M, Khan S, Alhomrani M, Alamri AS, Alghamdi SA, ALSuhaymi N, Baothman BK, Almaghrabi S, Ullah S, Jamil M"	"Comprehensive pan-cancer analysis reveals VSIR as a candidate immunologic, diagnostic, and prognostic biomarker."	American journal of translational research	doi: 10.62347/JMBZ8836
38883336	2024	"Huang XW, Li Y, Jiang LN, Zhao BK, Liu YS, Chen C, Zhao D, Zhang XL, Li ML, Jiang YY, Liu SH, Zhu L, Zhao JM"	Comprehensive pan-cancer investigation of carnosine dipeptidase 1 and its prospective prognostic significance in hepatocellular carcinoma.	"Open medicine (Warsaw, Poland)"	doi: 10.1515/med-2024-0982
38882287	2024 Jun 15	"Ke B, Jin P, Wang XJ, Liu N, Liang H, Zhang RP"	Oncogenic and immunological role of EDIL3 in human tumours: From pan-cancer analysis to validation in gastric cancer.	Heliyon	doi: 10.1016/j.heliyon.2024.e32291
38881943	2024 May 31	"Zhang H, Lu J, Dong Q, Wang G, Wang X"	CD112 is an epithelial-to-mesenchymal transition-related and immunological biomarker in pan-cancer.	Translational cancer research	doi: 10.21037/tcr-23-2258
38881923	2024 May 31	"Wang X, Zhu HQ, Lin SM, Xia BY, Xu B"	RPN1: a pan-cancer biomarker and disulfidptosis regulator.	Translational cancer research	doi: 10.21037/tcr-24-581
38877336	2024 Jun 14	"Jin F, He L, Wang J, Zhang Y, Yang M"	SFXN3 is a Prognostic Marker and Promotes the Growth of Acute Myeloid Leukemia.	Cell biochemistry and biophysics	doi: 10.1007/s12013-024-01326-5
38873671	2024 Jun 15	"Wang Y, Fu G, Chen X, Xia Z, Qi M, Du X, Liu K, Liu Q, Sun N, Shi C, Qu K, Zhang R"	Selenoprotein GPX3 is a novel prognostic indicator for stomach adenocarcinoma and brain low-grade gliomas: Evidence from an integrative pan-cancer analysis.	Heliyon	doi: 10.1016/j.heliyon.2024.e32271
38872862	2024 Aug	"Yang L, Han M, Zhao X, Zheng L, Kong F, Zhang S, Jia L, Li X, Wang M"	Comprehensive pan‚Äëcancer analysis of MTDH for human tumor prognosis and as an immunological biomarker including breast and kidney cancer.	Oncology letters	doi: 10.3892/ol.2024.14482
38871246	2024 Jun 12	"Yin Y, Wang Y, Yu X, Li Y, Zhao Y, Liu Z"	Overactivation of XBP1 in plasma cells implies worse survival through innate immunity in esophageal squamous cell carcinoma.	Cancer letters	doi: 10.1016/j.canlet.2024.217045
38868535	2024	"Qin L, Chen C, Gui Z, Jiang Y"	IRX5's influence on macrophage polarization and outcome in papillary thyroid cancer.	Frontiers in oncology	doi: 10.3389/fonc.2024.1399484
38868069	2024 Jun 15	"Chen R, Gao W, Liang L, Yu H, Song W"	Stem cell index-based RiskScore model for predicting prognosis in thyroid cancer and experimental verification.	Heliyon	doi: 10.1016/j.heliyon.2024.e31970
38864138	2024 Jun 18	"Chai X, Sun Z, Li H, Zhu L, Liu X, Liu Y, Pei F, Chang Q"	[Clinicopathological characteristics of the CD8(+) T lymphocytes infiltration and its mechanism in distinct molecular subtype of medulloblastoma].	Beijing da xue xue bao. Yi xue ban = Journal of Peking University. Health sciences	
38862971	2024 Jun 11	"Lu X, Liu J, Feng L, Huang Y, Xu Y, Li C, Wang W, Kan Y, Yang J, Zhang M"	BATF promotes tumor progression and association with FDG PET-derived parameters in colorectal cancer.	Journal of translational medicine	doi: 10.1186/s12967-024-05367-5
38862250	2024 Jun 11	"Guo Z, Cao B, Hu Z, Wu J, Zhou W, Zhang W, Shi Z"	"Immunotherapy, prognostic, and tumor biomarker based on pancancer analysis, SMARCD3."	Aging	doi: 10.18632/aging.205921
38861249	2024 Jun 11	"Liu Z, Chen M, Zheng W, Yuan S, Zhao W"	Insights into the prognostic value and immunological role of CD74 in pan-cancer.	Discover oncology	doi: 10.1007/s12672-024-01081-2
38859942	2024	"Drobyshev A, Modestov A, Suntsova M, Poddubskaya E, Seryakov A, Moisseev A, Sorokin M, Tkachev V, Zakharova G, Simonov A, Zolotovskaia MA, Buzdin A"	Pan-cancer experimental characteristic of human transcriptional patterns connected with telomerase reverse transcriptase (TERT) gene expression status.	Frontiers in genetics	doi: 10.3389/fgene.2024.1401100
38858644	2024 Jun 10	"Zhan ZQ, Huang ZM, Lan QW, Luo YH, Li JX, Zheng YF, Chen YZ, Chen PZ, Luo TY, Sun B, Cheng ZJ"	Integrated multi-omics analyses revealed the association between rheumatoid arthritis and colorectal cancer: MYO9A as a shared gene signature and an immune-related therapeutic target.	BMC cancer	doi: 10.1186/s12885-024-12466-5
38855425	2024	"Wu Z, Huang C"	Unveiling the Impact of MRC1 on Immune Infiltration and Patient's Prognosis: A Pan-Cancer Analysis Based on Single-Cell and Bulk Sequencing.	International journal of general medicine	doi: 10.2147/IJGM.S461144
38855424	2024	"Wei L, Meng J, Xiang D, Yang Q, Zhou Y, Xu L, Chen J, Han Y"	The Pan-Cancer Analysis Uncovers the Prognostic and Immunotherapeutic Significance of CD19 as an Immune Marker in Tumor.	International journal of general medicine	doi: 10.2147/IJGM.S459914
38855156	2024 May 28	"Huang LM, Zhang MJ"	Kinesin 26B modulates M2 polarization of macrophage by activating cancer-associated fibroblasts to aggravate gastric cancer occurrence and metastasis.	World journal of gastroenterology	doi: 10.3748/wjg.v30.i20.2689
38855103	2024	"Ding C, Huang H, Wu D, Chen C, Hua Y, Liu J, Li Y, Liu H, Chen J"	Pan-cancer analysis predict that FAT1 is a therapeutic target and immunotherapy biomarker for multiple cancer types including non-small cell lung cancer.	Frontiers in immunology	doi: 10.3389/fimmu.2024.1369073
38846934	2024	"Yang Y, Zou GM, Wei XS, Zhang Z, Zhuo L, Xu QQ, Li WG"	Identification and validation of biomarkers in membranous nephropathy and pan-cancer analysis.	Frontiers in immunology	doi: 10.3389/fimmu.2024.1302909
38846083	2024	"Ramos Solis N, Cannon A, Dilday T, Abt M, Oblak AL, Soloff AC, Kaplan MH, Yeh ES"	HUNK as a key regulator of tumor-associated macrophages in triple negative breast cancer.	Oncoimmunology	doi: 10.1080/2162402X.2024.2364382
38845941	2024 Jun 15	"Liu Y, Sun Y, Xiao M, Li S, Shi S"	Comprehensive pan-cancer analysis reveals the versatile role of GALNT7 in epigenetic alterations and immune modulation in cancer.	Heliyon	doi: 10.1016/j.heliyon.2024.e31515
38845861	2024 Jun 15	"Zong Y, Zhu A, Liu P, Fu P, Li Y, Chen S, Gao X"	Pan-cancer analysis of the disulfidptosis-related gene RPN1 and its potential biological function and prognostic significance in gliomas.	Heliyon	doi: 10.1016/j.heliyon.2024.e31875
38845188	2024 Jun 6	"Mateusiak ≈Å, Floru S, De Groof TWM, Wouters J, Declerck NB, Debie P, Janssen S, Zeven K, Puttemans J, Vincke C, Breckpot K, Devoogdt N, Hernot S"	Generation and Characterization of Novel Pan-Cancer Anti-uPAR Fluorescent Nanobodies as Tools for Image-Guided Surgery.	"Advanced science (Weinheim, Baden-Wurttemberg, Germany)"	doi: 10.1002/advs.202400700
38842133	2024 Jun	"Xu S, Xing J, Li K, Qiao L, Zhang C, Ren Y, Liu Y"	Pan-cancer analysis of DCTN2 and its tumour-promoting role in HCC by modulating the AKT pathway.	Journal of cellular and molecular medicine	doi: 10.1111/jcmm.18450
38840106	2024 Jun 5	"Li X, Wang C, Wang Y, Chen X, Li Z, Wang J, Liu Y"	Integrated analysis of the role of PR/SET domain 14 in gastric cancer.	BMC cancer	doi: 10.1186/s12885-024-12424-1
38836983	2024 Jun 5	"Ma J, Lang B, Wang L, Zhou Y, Fu C, Tian C, Xue L"	Pan-Cancer Analysis and Experimental Validation of CEND1 as a Prognostic and Immune Infiltration-Associated Biomarker for Gliomas.	Molecular biotechnology	doi: 10.1007/s12033-024-01197-4
38834966	2024 Jun 4	"Ye J, Ying J, Chen H, Wu Z, Huang C, Zhang C, Chen Z, Chen H"	PPIH acts as a potential predictive biomarker for patients with common solid tumors.	BMC cancer	doi: 10.1186/s12885-024-12446-9
38833156	2024 Jun 4	"Luo L, Jiang M, Wu H, Liu Y, Wang H, Zhou C, Ren S, Chen X, Jiang T, Xu C"	SIRPG expression positively associates with an inflamed tumor microenvironment and response to PD-1 blockade.	"Cancer immunology, immunotherapy : CII"	doi: 10.1007/s00262-024-03737-y
38824700	2024 Aug	"Vala DP, Dunne Miller A, Atmasidha A, Parmar MP, Patel CD, Upadhyay DB, Bhalodiya SS, Gonz√°lez-Bakker A, Khan AN, Nogales J, Padr√≥n JM, Banerjee S, Patel HM"	"Click-chemistry mediated synthesis of OTBN-1,2,3-Triazole derivatives exhibiting STK33 inhibition with diverse anti-cancer activities."	Bioorganic chemistry	doi: 10.1016/j.bioorg.2024.107485
38822443	2024 May 31	"Deng C, Li ZX, Xie CJ, Zhang QL, Hu BS, Wang MD, Mei J, Yang C, Zhong Z, Wang KW"	Pan-cancer analysis of CDKN2A alterations identifies a subset of gastric cancer with a cold tumor immune microenvironment.	Human genomics	doi: 10.1186/s40246-024-00615-7
38820302	2024	"Nguyen PT, Shimojukkoku Y, Kajiya Y, Oku Y, Tomishima A, Shima K, Sasahira T"	Gene alterations in the nuclear transport receptor superfamily: A study of head and neck cancer.	PloS one	doi: 10.1371/journal.pone.0300446
38819212	2024 May 30	"Dong B, Wang B, Fan M, Zhang J, Zhao Z"	Comprehensive analysis to identify PUS7 as a prognostic biomarker from pan-cancer analysis to osteosarcoma validation.	Aging	doi: 10.18632/aging.205863
38817870	2024	"Sun W, Ge J, Zhang L, Zhou F, Liu J"	"Exploring the role of innate immunity in Cholangiocarcinoma: implications for prognosis, immune infiltration, and tumor metastasis."	Journal of Cancer	doi: 10.7150/jca.94194
38816548	2024 May 30	"Wang C, Yang Y, Li D, Guan Y, Cao M, Nie M, Sun C, Fu W, Kong X"	Immunological Roles of¬†CCL18 in¬†Pan‚ÄëCancer and¬†Its Potential Value in¬†Endometrial Cancer.	Molecular biotechnology	doi: 10.1007/s12033-024-01205-7
38815867	2024 May 28	"Supplee JG, Affronti HC, Duan R, Brooks RC, Stine ZE, Nguyen PTT, Pinheiro LV, Noji MC, Drummond JM, Huang K, Schultz K, Dang CV, Marmorstein R, Wellen KE"	ACLY alternative splicing correlates with cancer phenotypes.	The Journal of biological chemistry	doi: 10.1016/j.jbc.2024.107418
38814103	2024 May 30	"Subbiah V, Gouda MA, Ryll B, Burris HA 3rd, Kurzrock R"	The evolving landscape of tissue-agnostic therapies in precision oncology.	CA: a cancer journal for clinicians	doi: 10.3322/caac.21844
38813139	2024 May 30	"Wang B, Sun D, Li H, Chen J"	A bird's eye view of the potential role of NFKBIA in pan-cancer.	Heliyon	doi: 10.1016/j.heliyon.2024.e31204
38809277	2024 May 29	"Huang H, Su L, Zhang R, Wu D, Ding C, Chen C, Zhu G, Cao P, Li X, Li Y, Liu H, Chen J"	Pan-cancer analysis combined with experiments predicts NNMT as a therapeutic target for human cancers.	Discover oncology	doi: 10.1007/s12672-024-01052-7
38800929	2024 Jun	"Cui Y, Lv P, Zhang C"	NSUN6 mediates 5-methylcytosine modification of METTL3 and promotes colon adenocarcinoma progression.	Journal of biochemical and molecular toxicology	doi: 10.1002/jbt.23749
38796629	2024 May 25	"Wang S, Li Y, Lin Y, Li J, Guo L, Wang H, Lin X, Liu Z, Zhang B, Liao Z, Zhang Z"	Bioinformatics analysis and experimental verification of the cancer-promoting effect of DHODH in clear cell renal cell carcinoma.	Scientific reports	doi: 10.1038/s41598-024-62738-0
38792963	2024 May 8	"Xu H, Wang X, Zhu F, Guo S, Chao Z, Cao C, Lu Z, Zhu H, Wang M, Zhu F, Yang J, Zeng R, Yao Y"	Comprehensive Pan-Cancer Analysis of Connexin 43 as a Potential Biomarker and Therapeutic Target in Human Kidney Renal Clear Cell Carcinoma (KIRC).	"Medicina (Kaunas, Lithuania)"	doi: 10.3390/medicina60050780
38790003	2024 May 24	"Zhang C, Wang Y, Guo X, Wang Z, Xiao J, Liu Z"	SLC7A5 correlated with malignancies and immunotherapy response in bladder cancer.	Cancer cell international	doi: 10.1186/s12935-024-03365-7
38787485	2024 May 24	"Yang J, Liu Y, Geng Q, Wang B"	Death associated protein kinase 1 predicts the prognosis and the immunotherapy response of various cancers.	Molecular biology reports	doi: 10.1007/s11033-024-09240-y
38787377	2024 May 22	"Li G, Li Q, Ping M, Jiao Z, Wang X, Cheng J, Guo J, Cheng Y"	SLAMF8 can predict prognosis of pan-cancer and the immunotherapy response effectivity of gastric cancer.	Aging	doi: 10.18632/aging.205850
38787365	2024 May 23	"Xiao H, Cui X, Liu L, Lv B, Zhang R, Zheng T, Yao D, Gao H, Gu X, Li Y, Tian Y"	Identification and validation of lipid metabolism-related key genes as novel biomarkers in acute myocardial infarction and pan-cancer analysis.	Aging	doi: 10.18632/aging.205860
38783997	2024 Jun 21	"Hakobyan A, Meyenberg M, Vardazaryan N, Hancock J, Vulliard L, Loizou JI, Menche J"	Pan-cancer analysis of the interplay between mutational signatures and cellular signaling.	iScience	doi: 10.1016/j.isci.2024.109873
38782354	2024 Jul 15	"Xu Z, Zhang L, Wang X, Pan B, Zhu M, Wang T, Xu W, Li L, Wei Y, Wu J, Zhou X"	Construction of a TAN-associated risk score model with integrated multi-omics data analysis and clinical validation in gastric cancer.	Life sciences	doi: 10.1016/j.lfs.2024.122731
38774870	2024	"Zhang Z, Li Y, Quan Z, Li Y, Zhu L, Sun S, Chen X"	Constructing immune and prognostic features associated with ADCP in hepatocellular carcinoma and pan-cancer based on scRNA-seq and bulk RNA-seq.	Frontiers in immunology	doi: 10.3389/fimmu.2024.1397541
38774095	2024 May 15	"Bai Y, Li L, Li J, Lu X"	Association analysis of FXYD5 with prognosis and immunological characteristics across pan-cancer.	Heliyon	doi: 10.1016/j.heliyon.2024.e30727
38773508	2024 May 21	"Liu H, Sima X, Xiao B, Gulizeba H, Zhao S, Zhou T, Huang Y"	Integrated analysis of single-cell and bulk RNA sequencing data reveals a myeloid cell-related regulon predicting neoadjuvant immunotherapy response across cancers.	Journal of translational medicine	doi: 10.1186/s12967-024-05123-9
38773440	2024 May 21	"Lin J, Liu P, Sun K, Jiang L, Liu Y, Huang Y, Liu J, Shi M, Zhang J, Wang T, Shen B"	Comprehensive analysis of KLF family reveals KLF6 as a promising prognostic and immune biomarker in pancreatic ductal adenocarcinoma.	Cancer cell international	doi: 10.1186/s12935-024-03369-3
38770717	2024 Mar 27	"Li K, Yang H, Lin A, Xie J, Wang H, Zhou J, Carr SR, Liu Z, Li X, Zhang J, Cheng Q, Schrump DS, Luo P, Wei T"	CPADS: a web tool for comprehensive pancancer analysis of drug sensitivity.	Briefings in bioinformatics	doi: 10.1093/bib/bbae237
38769286	2024 May 20	"Zheng SS, Wu JF, Wu WX, Hu JW, Zhang D, Huang C, Zhang BH"	CBX1 is involved in hepatocellular carcinoma progression and resistance to sorafenib and lenvatinib via IGF-1R/AKT/SNAIL signaling pathway.	Hepatology international	doi: 10.1007/s12072-024-10696-0
38769225	2024 May 20	"Jin WM, Zhu Y, Cai ZQ, He N, Yu ZQ, Li S, Yang JY"	Progress of Clinical Studies Targeting Claudin18.2 for the Treatment of Gastric Cancer.	Digestive diseases and sciences	doi: 10.1007/s10620-024-08435-4
38758950	2024 May 17	"Wang Y, Guo E, Zou M, Lv C, Cui Y, Zhai S, Sang S, Xiong K, Yang X, Zhuang S, Gu Y, Liang H"	Unraveling Immune Heterogeneity across Pan-Cancer and Deep Insights in Lung Adenocarcinoma based on Alternative Splicing.	Journal of leukocyte biology	pii: qiae104. doi: 10.1093/jleuko/qiae104
38756529	2024	"Zhu Z, Zhang W, Huo S, Huang T, Cao X, Zhang Y"	"TUBB, a robust biomarker with satisfying abilities in diagnosis, prognosis, and immune regulation via a comprehensive pan-cancer analysis."	Frontiers in molecular biosciences	doi: 10.3389/fmolb.2024.1365655
38751492	2024	"Xu H, Zhang H, Sun S, Zhang J, Huo J, Zhou C"	Integrated Analysis of CD1A Immune Infiltration and Competing Endogenous RNA Networks in COAD.	International journal of general medicine	doi: 10.2147/IJGM.S455546
38750988	2024 Sep 15	"Li P, Wang C, Chen G, Han Y, Lu H, Li N, Lv Y, Chu C, Peng X"	Molecular mechanisms of Tetrastigma hemsleyanum Diels&Gilg against lung squamous cell carcinoma: From computational biology and experimental validation.	Journal of ethnopharmacology	doi: 10.1016/j.jep.2024.118326
38748299	2024 May 15	"Zhao W, Liang Z, Yao Y, Ge Y, An G, Duan L, Yao J"	GGT5: a potential immunotherapy response inhibitor in gastric cancer by modulating GSH metabolism and sustaining memory CD8+ T cell infiltration.	"Cancer immunology, immunotherapy : CII"	doi: 10.1007/s00262-024-03716-3
38745241	2024 May 14	"Zhao Z, Wang R, Wang R, Song J, Ma F, Pan H, Gao C, Wang D, Chen X, Fan X"	Correction: Pancancer analysis of the prognostic and immunological role of FANCD2: a potential target for carcinogenesis and survival.	BMC medical genomics	doi: 10.1186/s12920-024-01896-6
38744958	2024 May 14	"Kang J, Lee JH, Cha H, An J, Kwon J, Lee S, Kim S, Baykan MY, Kim SY, An D, Kwon AY, An HJ, Lee SH, Choi JK, Park JE"	Systematic dissection of tumor-normal single-cell ecosystems across a thousand tumors of 30 cancer types.	Nature communications	doi: 10.1038/s41467-024-48310-4
38743077	2024 May 14	"Zhang J, Yang J, Li X, Mao L, Zhang Y, Liu Y, Bao Y"	EMP1 correlated with cancer progression and immune characteristics in pan-cancer and ovarian cancer.	Molecular genetics and genomics : MGG	doi: 10.1007/s00438-024-02146-1
38742949	2024 May 13	"Liu L, Sun J, Zhong C, Zhang A, Wang G, Chen S, Zhang S, Wang M, Li L"	Identification of a fatty acid metabolism-related gene signature to predict prognosis in stomach adenocarcinoma.	Aging	doi: 10.18632/aging.205823
38741920	2024	"Gonz√°lez-Cao M, Cai X, Bracht JWP, Han X, Yang Y, Pedraz-Valdunciel C, Mor√°n T, Garc√≠a-Corbacho J, Aguilar A, Bernab√© R, De Marchi P, Sussuchi da Silva L, Leal LF, Reis RM, Codony-Servat J, Jantus-Lewintre E, Molina-Vila MA, Cao P, Rosell R"	HMGB1 Expression Levels Correlate with Response to Immunotherapy in Non-Small Cell Lung Cancer.	"Lung Cancer (Auckland, N.Z.)"	doi: 10.2147/LCTT.S455034
38739269	2024 Jul	"Liu M, Yang M, Zhang B, Xia S, Zhao J, Yan L, Ren Y, Guo H, Zhao J"	PCDH11X mutation as a potential biomarker for immune checkpoint therapies in lung adenocarcinoma.	"Journal of molecular medicine (Berlin, Germany)"	doi: 10.1007/s00109-024-02450-8
38737693	2024 Apr 30	"Su X, Liu J, Tu Z, Ji Q, Li J, Liu F"	DNMT3A promotes glioma growth and malignancy via TNF-Œ±/NF-Œ∫B signaling pathway.	Translational cancer research	doi: 10.21037/tcr-23-1943
38737690	2024 Apr 30	"Li C, Huang Y, Yi X, Tang Y, Okita R, He J"	Pan-cancer prognostic model and immune microenvironment analysis of natural killer cell-related genes.	Translational cancer research	doi: 10.21037/tcr-24-434
38737683	2024 Apr 30	"Xiao HN, Zhao ZY, Li JP, Li AY"	Comprehensive pan-cancer analysis: essential role of ABCB family genes in cancer.	Translational cancer research	doi: 10.21037/tcr-23-2050
38730491	2024 May 10	"Hu T, Cheng B, Matsunaga A, Zhang T, Lu X, Fang H, Mori SF, Fang X, Wang G, Xu H, Shi H, Cowell JK"	Single-cell analysis defines highly specific leukemia-induced neutrophils and links MMP8 expression to recruitment of tumor associated neutrophils during FGFR1 driven leukemogenesis.	Experimental hematology & oncology	doi: 10.1186/s40164-024-00514-6
38728250	2024 May 7	"Zeng J, Li X, Zhang Y, Zhang B, Wang H, Bao S, Zu L, Zhang H, Cheng Y, Tang Q, Xu X, Xu S, Song Z"	GJB3: a comprehensive biomarker in pan-cancer prognosis and immunotherapy prediction.	Aging	doi: 10.18632/aging.205774
38720365	2024 May 8	"Chen Y, Li D, Sha K, Zhang X, Liu T"	Human pan-cancer analysis of the predictive biomarker for the CDKN3.	European journal of medical research	doi: 10.1186/s40001-024-01869-6
38720348	2024 May 8	"Zeng L, Zhang L, Yin C, Chen X, Chen X, Sun L, Sun J"	"Characterization of zinc finger protein 536, a neuroendocrine regulator, using pan-cancer analysis."	European journal of medical research	doi: 10.1186/s40001-024-01792-w
38720108	2024 May 8	"Liang H, Zheng Y, Huang Z, Dai J, Yao L, Xie D, Chen D, Qiu H, Wang H, Li H, Leng J, Tang Z, Zhang D, Zhou H"	Pan-cancer analysis for the prognostic and immunological role of CD47: interact with TNFRSF9 inducing CD8‚Ä?‚ÄâT cell exhaustion.	Discover oncology	doi: 10.1007/s12672-024-00951-z
38718659	2024 Jun 15	"Ur Rehman A, Wang Z, Qin Q, Zhang X, Akhtar A, Liu H, Mao B, Khan N, Tang L, Li X"	Enhancing antitumor immunity and achieving tumor eradication with IL11RA mRNA immunotherapy.	International immunopharmacology	doi: 10.1016/j.intimp.2024.112205
38718436	2024 Jul	"Liu S, Wang Z, Hu L, Ye C, Zhang X, Zhu Z, Li J, Shen Q"	Pan-cancer analysis of super-enhancer-induced LINC00862 and validation as a SIRT1-promoting factor in cervical cancer and gastric cancer.	Translational oncology	doi: 10.1016/j.tranon.2024.101982
38715380	2024 May	"Yan G, Li G, Gao X, Liu J, Li Y, Li J, Zhou H"	GTSE1: A potential prognostic and diagnostic biomarker in various tumors including lung adenocarcinoma.	The clinical respiratory journal	doi: 10.1111/crj.13757
38714870	2024 May 7	"Yan B, Liao P, Liu S, Lei P"	Comprehensive pan-cancer analysis of inflammatory age-clock-related genes as prognostic and immunity markers based on multi-omics data.	Scientific reports	doi: 10.1038/s41598-024-61381-z
38714579	2024 May 7	"Feng JL, Liang B, Zheng WJ, Xu L, Zhou QY, Chen J"	Integrative analysis of single-cell and bulk RNA sequencing unveils a machine learning-based pan-cancer major histocompatibility complex-related signature for predicting immunotherapy efficacy.	"Cancer immunology, immunotherapy : CII"	doi: 10.1007/s00262-024-03714-5
38713157	2024 May 6	"Li C, Gao M, Zha N, Guo G"	The prognostic value and immunological role of MVP in pan-cancer study.	Aging	doi: 10.18632/aging.205802
38711550	2024 Jul	"Ahmadi M, Mohajeri Khorasani A, Morshedzadeh F, Saffarzadeh N, Ghaderian SMH, Ghafouri-Fard S, Mousavi P"	"HLF is a promising prognostic, immunological, and therapeutic biomarker in human tumors."	Biochemistry and biophysics reports	doi: 10.1016/j.bbrep.2024.101725
38711549	2024 Jul	"Chen X, Li R, Yin YH, Liu X, Zhou XJ, Qu YQ"	"Pan-cancer prognosis, immune infiltration, and drug resistance characterization of lung squamous cell carcinoma tumor microenvironment-related genes."	Biochemistry and biophysics reports	doi: 10.1016/j.bbrep.2024.101722
38709075	2024 May 30	"Miller CD, Lozada JR, Zorko NA, Elliott A, Makovec A, Radovich M, Heath EI, Agarwal N, Mckay RR, Garje R, Bastos BR, Hoon DSB, Orme JJ, Sartor O, VanderWalde A, Nabhan C, Sledge G, Shenderov E, Dehm SM, Lou E, Miller JS, Hwang JH, Antonarakis ES"	Pan-Cancer Interrogation of B7-H3 (CD276) as an Actionable Therapeutic Target Across Human Malignancies.	Cancer research communications	doi: 10.1158/2767-9764.CRC-23-0546
38707440	2024 May 15	"Song J, Guo W, Xu H, Gao T"	CDC73 serves as a tumour-promoting factor in oesophageal cancer.	Heliyon	doi: 10.1016/j.heliyon.2024.e29904
38706595	2024	"Lechner A, Kumbrink J, Walz C, Jung A, Baumeister P, Flach S"	Molecular characterization of the evolution of premalignant lesions in the upper aerodigestive tract.	Frontiers in oncology	doi: 10.3389/fonc.2024.1364958
38702309	2024 May 3	"Shaw TI, Wagner J, Tian L, Wickman E, Poudel S, Wang J, Paul R, Koo SC, Lu M, Sheppard H, Fan Y, O'Neill FH, Lau CC, Zhou X, Zhang J, Gottschalk S"	Discovery of immunotherapy targets for pediatric solid and brain tumors by exon-level expression.	Nature communications	doi: 10.1038/s41467-024-47649-y
38700505	2024 May 2	"Ouyang W, Liu Y, Huang H, Tan Y, Huang Z, Jia X, Yu Y, Yao H"	Unraveling the unfolded protein response signature: implications for tumor immune microenvironment heterogeneity and clinical prognosis in stomach cancer.	Aging	doi: 10.18632/aging.205784
38698857	2024	"Yuan Z, Li B, Liao W, Kang D, Deng X, Tang H, Xie J, Hu D, Chen A"	Comprehensive pan-cancer analysis of YBX family reveals YBX2 as a potential biomarker in liver cancer.	Frontiers in immunology	doi: 10.3389/fimmu.2024.1382520
38698811	2024	"Huang QR, Jiang Q, Tan JY, Nong RB, Yan J, Yang XW, Mo LG, Ling GY, Deng T, Gong YZ"	The prognostic and immunological role of MCM3 in pan-cancer and validation of prognosis in a clinical lower-grade glioma cohort.	Frontiers in pharmacology	doi: 10.3389/fphar.2024.1390615
38698126	2024 Jun	"Chen X, Yang W, Roberts CWM, Zhang J"	Developmental origins shape the paediatric cancer genome.	Nature reviews. Cancer	doi: 10.1038/s41568-024-00684-9
38697449	2024 Aug	"Xue S, Cai Y, Liu J, Ji K, Yi P, Long H, Zhang X, Li P, Song Y"	Dysregulation of phosphoenolpyruvate carboxykinase in cancers: A comprehensive analysis.	Cellular signalling	doi: 10.1016/j.cellsig.2024.111198
38696320	2024 May 1	"Chen X, Wang S, Jiang X, Zhang M, Ding Y"	Long non-coding RNA HOTAIR: from pan-cancer analysis to colorectal cancer-related uridine metabolism.	Aging	doi: 10.18632/aging.205781
38691253	2024 May 1	"Chen B, Liu Y, He Y, Shen C"	Pan-cancer analysis of prognostic and immunological role of IL4I1 in human tumors: a bulk omics research and single cell sequencing validation.	Discover oncology	doi: 10.1007/s12672-024-01000-5
38689995	2024 Apr 15	"Zhang C, Tan H, Xu H, Ding J, Chen H, Liu X, Sun F"	"Pan-cancer identified ARPC1B as a promising target for tumor immunotherapy and prognostic biomarker, particularly in READ."	Heliyon	doi: 10.1016/j.heliyon.2024.e28005
38688977	2024 Apr 30	"Liu XS, Chen YL, Chen YX, Wu RM, Tan F, Wang YL, Liu ZY, Gao Y, Pei ZJ"	"Pan-cancer analysis reveals correlation between RAB3B expression and tumor heterogeneity, immune microenvironment, and prognosis in multiple cancers."	Scientific reports	doi: 10.1038/s41598-024-60581-x
38688048	2024 Jul	"Li Z, Lu W, Yin F, Huang A"	YBX1 as a prognostic biomarker and potential therapeutic target in hepatocellular carcinoma: A comprehensive investigation through bioinformatics analysis and in vitro study.	Translational oncology	doi: 10.1016/j.tranon.2024.101965
38687460	2024 Jun	"Liang T, Zhou X, Wang Y, Ma W"	Glioma hexokinase 3 positively correlates with malignancy and macrophage infiltration.	Metabolic brain disease	doi: 10.1007/s11011-023-01333-0
38685772	2024 Apr 29	"Liu J, Li H, Zhang N, Dong Q, Liang Z"	Multiomics Analysis of Disulfidptosis Patterns and Integrated Machine Learning to Predict Immunotherapy Response in Lung Adenocarcinoma.	Current medicinal chemistry	doi: 10.2174/0109298673313281240425050032
38684762	2024 Apr 29	"Chang H, Chen H, Ma T, Ma K, Li Y, Suo L, Liang X, Jia K, Ma J, Li J, Sun D"	Multi-omics pan-cancer study of SPTBN2 and its value as a potential therapeutic target in pancreatic cancer.	Scientific reports	doi: 10.1038/s41598-024-60780-6
38684596	2024 Apr 29	"Liang X, Huang X, Cai Z, Deng Y, Liu D, Hu J, Jin Z, Zhou X, Zhou H, Wang L"	The S100 family is a prognostic biomarker and correlated with immune cell infiltration in pan-cancer.	Discover oncology	doi: 10.1007/s12672-024-00945-x
38682182	2024 Apr 12	"Chen Y, Xiao C, Fan Q, Zhang Y, Huang Q, Ou Y"	"Multi-Omics Pan-Cancer Analysis of Procollagen N-Propeptidase Gene Family of ADAMTS as Novel Biomarkers to Associate with Prognosis, Tumor Immune Microenvironment, Signaling Pathways, and Drug Sensitivities."	Frontiers in bioscience (Landmark edition)	doi: 10.31083/j.fbl2904151
38678604	2024 Apr 28	"Liu H, Cui Z, Wang R, Wang L, Wang L, Cheng F, Pan R, Yang X"	"Characterization of the prognostic, diagnostic, and immunological roles of DSCC1 and its genomic alteration and instability in human cancers."	"Cellular and molecular biology (Noisy-le-Grand, France)"	doi: 10.14715/cmb/2024.70.4.32
38678596	2024 Apr 28	"Zheng R, Yao B, Ye Y, Luo R, Wu Z, Hu X, Yuan Y, Pan X, Liu C, Huang L, Luo Y, Yang D, Shang N, Tian Y, Jia J"	"MAL, a potential immunotherapy target, is associated with poor prognosis in cancer patients."	"Cellular and molecular biology (Noisy-le-Grand, France)"	doi: 10.14715/cmb/2024.70.4.39
38678297	2024 Apr 27	"Bai J, Zhao Y, Shi K, Fan Y, Ha Y, Chen Y, Luo B, Lu Y, Jie W, Shen Z"	HIF-1Œ±-mediated LAMC1 overexpression is an unfavorable predictor of prognosis for glioma patients: evidence from pan-cancer analysis and validation experiments.	Journal of translational medicine	doi: 10.1186/s12967-024-05218-3
38674408	2024 Apr 9	"Kadhim DJ, Azari H, Sokhangouy SK, Hassanian SM, Alshekarchi HI, Goshayeshi L, Goshayeshi L, Abbaszadegan MR, Khojasteh-Leylakoohi F, Khazaei M, Gataa IS, Peters GJ, A Ferns G, Batra J, Lam AK, Giovannetti E, Avan A"	G-Protein Signaling Modulator 2 as a Potential Biomarker in Colorectal Cancer: Integrative Analysis Using Genetic Profiling and Pan-Cancer Studies.	Genes	doi: 10.3390/genes15040474
38671021	2024 Apr 26	"Yang L, Tang Y, Zhang Y, Wang Y, Jiang P, Liu F, Feng N"	"Comprehensiveness cuproptosis related genes study for prognosis and medication sensitiveness across cancers, and validation in prostate cancer."	Scientific reports	doi: 10.1038/s41598-024-57303-8
38664705	2024 Apr 25	"Chen D, Liu P, Lu X, Li J, Qi D, Zang L, Lin J, Liu Y, Zhai S, Fu D, Weng Y, Li H, Shen B"	Pan-cancer analysis implicates novel insights of lactate metabolism into immunotherapy response prediction and survival prognostication.	Journal of experimental & clinical cancer research : CR	doi: 10.1186/s13046-024-03042-7
38663913	2024 Apr 25	"Liu Y, Huang H, Yang X, Huang D, Wang X, Yuan M, Hong L"	Comprehensive bioinformatics analysis of NOX4 as a biomarker for pan-cancer prognosis and immune infiltration.	Aging	doi: 10.18632/aging.205769
38659266	2024 Apr 24	"Li Z, Zhou S, Bin T, Shi Y, Zeng L, Li B, Li J, He Y, Zhang C"	"NIFK, a Potential Prognostic and Immunological Biomarker in Pan-- Cancer Analysis, Significantly Regulates Proliferation and Metastasis of Colorectal Cancer."	Recent patents on anti-cancer drug discovery	doi: 10.2174/0115748928295346240406185103
38658471	2024 Apr 24	"Zhang H, Zhang X, Zhang Y, Han D, Ha H, Zhang B, Shang P"	Pan-Cancer Analysis Shows that KIFC2 is a Potential Prognostic and Immunotherapeutic Biomarker for Multiple Cancer Types Including Bladder Cancer.	Molecular biotechnology	doi: 10.1007/s12033-024-01149-y
38657187	2024 Jul 10	"Kl√ºmper N, Tran NK, Zsch√§bitz S, Hahn O, B√ºttner T, Roghmann F, Bolenz C, Zengerling F, Schwab C, Nagy D, Toma M, Kristiansen G, Heers H, Ivanyi P, Niegisch G, Grunewald CM, Darr C, Farid A, Schlack K, Abbas M, Aydogdu C, Casuscelli J, Mokry T, Mayr M, Nieders√º√ü-Beke D, Rausch S, Dietrich D, Saal J, Ellinger J, Ritter M, Alajati A, Kuppe C, Meeks J, Vera Badillo FE, Nakauma-Gonz√°lez JA, Boormans J, Junker K"	NECTIN4 Amplification Is Frequent in Solid Tumors and Predicts Enfortumab Vedotin Response in Metastatic Urothelial Cancer.	Journal of clinical oncology : official journal of the American Society of Clinical Oncology	doi: 10.1200/JCO.23.01983
38655365	2024 Apr 30	"Liu Y, Li X, Yang J, Chen S, Zhu C, Shi Y, Dang S, Zhang W, Li W"	Pan-cancer analysis of SLC2A family genes as prognostic biomarkers and therapeutic targets.	Heliyon	doi: 10.1016/j.heliyon.2024.e29655
38655053	2024	"Tian X, Hu D, Wang N, Zhang L, Wang X"	LINC01614 is a promising diagnostic and prognostic marker in HNSC linked to the tumor microenvironment and oncogenic function.	Frontiers in genetics	doi: 10.3389/fgene.2024.1337525
38649557	2024 Apr 22	"Zhou Y, Wei X, Jia L, Li W, Zhang S, Zhao Y"	Pan-Cancer Analysis of the Prognostic and Immunological Role of TOMM40 to Identify Its Function in Breast Cancer.	Biochemical genetics	doi: 10.1007/s10528-024-10794-6
38647237	2024 Apr	"Ma C, Gu Z, Yang Y"	"Development of m6A/m5C/m1A regulated lncRNA signature for prognostic prediction, personalized immune intervention and drug selection in LUAD."	Journal of cellular and molecular medicine	doi: 10.1111/jcmm.18282
38644836	2024 Apr 30	"Zhao G, Wang Y, Zhou J, Ma P, Wang S, Li N"	Pan-cancer analysis of polo-like kinase family genes reveals polo-like kinase 1 as a novel oncogene in kidney renal papillary cell carcinoma.	Heliyon	doi: 10.1016/j.heliyon.2024.e29373
38642258	2024 Apr 20	"Wu Z, Pan T, Li W, Zhang YH, Guo SH, Liu Y, Zhang L, Wang ZY"	Comprehensive pan-cancer analysis reveals prognostic implications of TMEM92 in the tumor immune microenvironment.	Clinical & translational oncology : official publication of the Federation of Spanish Oncology Societies and of the National Cancer Institute of Mexico	doi: 10.1007/s12094-024-03477-6
38642129	2024 Apr 20	"Pham VVH, Jue TR, Bell JL, Luciani F, Michniewicz F, Cirillo G, Vahdat L, Mayoh C, Vittorio O"	A novel network-based method identifies a cuproplasia-related pan-cancer gene signature to predict patient outcome.	Human genetics	doi: 10.1007/s00439-024-02673-2
38640328	2024 Apr 19	"Shen X, Yan Z, Huang Y, Zhu Q, Zhang G, Ci H, Wu Q, Wu L"	ALDH2 as an immunological and prognostic biomarker: Insights from pan-cancer analysis.	Medicine	doi: 10.1097/MD.0000000000037820
38639949	2023 Dec	"Yan ZC, Liu TH, Yu SB, Zhan YH, Wang ZY, Zhu ZW, Reng YL, Shang XJ, Zhang XP"	[Expression and significance analysis of GDF3 in testicular cancer based on TCGA and GTEx databases].	Zhonghua nan ke xue = National journal of andrology	
38637116	2024 Apr 16	"Jia Y, Chen X, Guo H, Zhang B, Liu B"	Comprehensive characterization of Œ≤-alanine metabolism-related genes in HCC identified a novel prognostic signature related to clinical outcomes.	Aging	doi: 10.18632/aging.205744
38636303	2024 Jun 18	"Shukla D, Mandal T, Srivastava AK"	Neil 1 deficiency facilitates chemoresistance through upregulation of RAD18 expression in ovarian cancer stem cells.	Biochemical and biophysical research communications	doi: 10.1016/j.bbrc.2024.149907
38635758	2024	"Wang Y, Chen R, Zhang J, Zeng P"	A comprehensive analysis of ribonucleotide reductase subunit M2 for carcinogenesis in pan-cancer.	PloS one	doi: 10.1371/journal.pone.0299949
38633624	2024 Apr 15	"Deng Z, Liu Y, Zhou H"	Distinct roles of CD244 expression in cancer diagnosis and prognosis: A pan-cancer analysis.	Heliyon	doi: 10.1016/j.heliyon.2024.e28928
38629358	2024 Apr 16	"He H, Yuan F, Li Y, Pi G, Shi H, Li Y, Han G"	Comprehensive Analysis and Experimental Validation of FOXD2 as a Novel Potential Prognostic Biomarker Associated with Immune Infiltration in Head and Neck Squamous Cell Carcinoma.	Current computer-aided drug design	doi: 10.2174/0115734099302492240405065505
38627900	2024 Apr	"Han X, Song D, Cui Y, Shi Y, Gu X"	Pan-cancer analyses of immunogenic cell death-derived gene signatures: Potential biomarkers for prognosis and immunotherapy.	"Cancer reports (Hoboken, N.J.)"	doi: 10.1002/cnr2.2073
38627863	2024 Apr 16	"Liu Y, Peng B, Chen Z, Shen Y, Zhang J, Yuan X"	Pan-cancer transcriptional atlas of minimal residual disease links DUSP1 to chemotherapy persistence.	Experimental hematology & oncology	doi: 10.1186/s40164-024-00509-3
38619631	2024 Apr 15	"Zhang X, Hou J, Zhou G, Wang H, Wu Z"	zDHHC3-mediated S-palmitoylation of SLC9A2 regulates apoptosis in kidney clear cell carcinoma.	Journal of cancer research and clinical oncology	doi: 10.1007/s00432-024-05737-y
38618458	2024 Mar	"Eletr LF, Ibnouf SH, Salih TA, Ibrahim HI, Mustafa MI, Alhashmi NA, Alfaki M"	Comprehensive Analysis Reveals Deoxyribonuclease 1 as a Potential Prognostic and Diagnostic Biomarker in Human Cancers.	Cureus	doi: 10.7759/cureus.56171
38617932	2024 Apr 15	"Li Q, Li F, Song X, Lu N, Jing X, Wen H, Ma P, Zhang H, Yao W, Wang X, Zhang M"	Pan-cancer analysis of ARFs family and ARF5 promoted the progression of hepatocellular carcinoma.	Heliyon	doi: 10.1016/j.heliyon.2024.e29099
38617518	2024 Mar 31	"Tao L, Xu X, Fang Z, Christopoulos P, Cortinovis D, Lu Y"	"RAC1 as a potential pan-cancer diagnostic, prognostic, and immunological biomarker."	Translational cancer research	doi: 10.21037/tcr-23-2016
38617516	2024 Mar 31	"Liu X, Cui Q, Qin N"	Low expression of KLRB1 predicts poor survival outcomes and is associated with immune infiltration in breast cancer.	Translational cancer research	doi: 10.21037/tcr-23-1231
38617504	2024 Mar 31	"Ma Y, Fang F, Liao K, Zhang J, Wei C, Liao Y, Zhao B, Fang Y, Chen Y, Zhang X, Tang D"	Identification and validation of the clinical prediction model and biomarkers based on chromatin regulators in colon cancer by integrated analysis of bulk- and single-cell RNA sequencing data.	Translational cancer research	doi: 10.21037/tcr-23-1886
38613793	2024 Apr 12	"Zhang Z, Wang P, Chen S, Xiang D, Chen J, Huang W, Liu X, Yi T, Wang D, Pu Y, He L, Zhang H"	NXPH4 can be used as a biomarker for pan-cancer and promotes colon cancer progression.	Aging	doi: 10.18632/aging.205648
38609450	2024 Apr 13	"Yang K, Ma Y, Chen W, Liu L, Yang Z, He C, Zheng N, Liu X, Cheng X, Song J, Chen Y, Qiao H, Zhang R"	"CCDC58 is a potential biomarker for diagnosis, prognosis, immunity, and genomic heterogeneity in pan-cancer."	Scientific reports	doi: 10.1038/s41598-024-59154-9
38608058	2024 Apr 12	"Wang Y, Li C, Jiang T, Yin Y, Wang Y, Zhao H, Yu L"	A comprehensive exploration of twist1 to identify a biomarker for tumor immunity and prognosis in pan-cancer.	Medicine	doi: 10.1097/MD.0000000000037790
38605349	2024 Apr 11	"Huang Y, Chen D, Bai Y, Zhang Y, Zheng Z, Fu Q, Yi B, Jiang Y, Zhang Z, Zhu J"	ESCO2's oncogenic role in human tumors: a pan-cancer analysis and experimental validation.	BMC cancer	doi: 10.1186/s12885-024-12213-w
38605119	2024 Apr 11	"Xia F, Yang H, Wu H, Zhao B"	Spindle component 25 predicts the prognosis and the immunotherapy response of cancers: a pan-cancer analysis.	Scientific reports	doi: 10.1038/s41598-024-59038-y
38601662	2024 Apr 15	"Xiong H, Chen Z, Li Y, Wu Z, Qian D, Chen L, Li Q, Liu H, Chen W, Lin B, Jia Y, Wang C"	Pan-cancer analysis of the prognostic and immunological role of FKBP4.	Heliyon	doi: 10.1016/j.heliyon.2024.e29098
38601619	2024 Apr 15	"Deng X, Luo Y, Lu M, Lin Y, Ma L"	Identification of GMFG as a novel biomarker in IgA nephropathy based on comprehensive bioinformatics analysis.	Heliyon	doi: 10.1016/j.heliyon.2024.e28997
38600469	2024 Apr 10	"Wang H, Zhang X, Zhang Y, Shi T, Zhang Y, Song X, Liu B, Wang Y, Wei J"	Targeting PCSK9 to upregulate MHC-II on the surface of tumor cells in tumor immunotherapy.	BMC cancer	doi: 10.1186/s12885-024-12148-2
38594331	2024 Apr 9	"Geyer F, Geyer M, Reuning U, Klapproth S, Wolff KD, Nieberler M"	CHD4 acts as a prognostic factor and drives radioresistance in HPV negative HNSCC.	Scientific reports	doi: 10.1038/s41598-024-58958-z
38593585	2024 Jun	"Song Y, Guo JF, Lan PS, Wang M, Du QY"	Investigation of the pan-cancer property of FNDC1 and its molecular mechanism to promote lung adenocarcinoma metastasis.	Translational oncology	doi: 10.1016/j.tranon.2024.101953
38590909	2024 Apr 15	"Zhang FB, Gan L, Zhu TH, Ding HQ, Wu CH, Guan YT, Chen XQ"	Pan-cancer analyses reveal genomics and clinical outcome association of the fatty acid oxidation regulators in cancer.	Heliyon	doi: 10.1016/j.heliyon.2024.e28441
38590398	2024	"Wang H, Zhang Y, Du S"	"Integrated analysis of lactate-related genes identifies POLRMT as a novel marker promoting the proliferation, migration and energy metabolism of hepatocellular carcinoma via Wnt/Œ≤-Catenin signaling."	American journal of cancer research	doi: 10.62347/ZTTG4319
38589831	2024 Apr 8	"Sun H, Shang J, Liu X, Ren S, Hu S, Wang X"	Eukaryotic initiation factor 3a promotes the development of diffuse large B-cell lymphoma through regulating cell proliferation.	BMC cancer	doi: 10.1186/s12885-024-12166-0
38589634	2024 Apr 8	"Wang Y, Li Y, Jing Y, Yang Y, Wang H, Ismtula D, Guo C"	Tubulin alpha-1b chain was identified as a prognosis and immune biomarker in pan-cancer combing with experimental validation in breast cancer.	Scientific reports	doi: 10.1038/s41598-024-58982-z
38586115	2024	"Wang J, Gilani SF, Noor N, Ahmed MR, Munazir M, Zubair A, Sultan R, Abdel-Maksoud MA, Saleh IA, Zomot N, Kodous AS, Ibrahim SS, El-Tayeb MA, Aufy M, Zaky MY, Hassan SS, Hameed Y"	Decoding the DSCC1 gene as a pan-cancer biomarker in human cancers via comprehensive multi-omics analyses.	American journal of translational research	doi: 10.62347/YORR3755
38586106	2024	"Huang L, Irshad S, Sultana U, Ali S, Jamil A, Zubair A, Sultan R, Abdel-Maksoud MA, Mubarak A, Almunqedhi BM, Almanaa TN, Malik A, Alamri A, Kodous AS, Mares M, Zaky MY, Saba Sajjad S, Hameed Y"	"Pan-cancer analysis of HS6ST2: associations with prognosis, tumor immunity, and drug resistance."	American journal of translational research	doi: 10.62347/NCPH5416
38584831	2024	"Shen LP, Jiang HT"	Pan-cancer and single-cell analysis of actin cytoskeleton genes related to disulfidptosis.	"Open medicine (Warsaw, Poland)"	doi: 10.1515/med-2024-0929
38584561	2024 Apr 4	"Gong Q, Li Q, Shen X, Xu Z"	ERH Impacts Patient Prognosis and Tumor Immune Microenvironment: A Pan-Cancer Analysis.	Combinatorial chemistry & high throughput screening	doi: 10.2174/0113862073295696240322084341
38584169	2024 Apr 7	"Han F, Ma J"	Pan-cancer analysis reveals IL32 is a potential prognostic and immunotherapeutic biomarker in cancer.	Scientific reports	doi: 10.1038/s41598-024-58550-5
38581717	2024 Apr 5	"Chen Q, Ouyang L, Liu Q"	Cyclin B1: A potential prognostic and immunological biomarker in pan-cancer.	Biomolecules & biomedicine	doi: 10.17305/bb.2024.10253
38581448	2024 Jun 14	"Zhang W, Maeser D, Lee A, Huang Y, Gruener RF, Abdelbar IG, Jena S, Patel AG, Huang RS"	Integration of Pan-Cancer Cell Line and Single-Cell Transcriptomic Profiles Enables Inference of Therapeutic Vulnerabilities in Heterogeneous Tumors.	Cancer research	doi: 10.1158/0008-5472.CAN-23-3005
38579399	2024 May	"Ospital IA, T√°quez Delgado MA, Nicoud MB, Corr√™a MF, Borges Fernandes GA, Andrade IW, Lauretta P, Mart√≠nez Vivot R, Comba MB, Zanardi MM, Speisky D, Uriburu JL, Fernandes JPS, Medina VA"	Therapeutic potential of LINS01 histamine H(3) receptor antagonists as antineoplastic agents for triple negative breast cancer.	Biomedicine & pharmacotherapy = Biomedecine & pharmacotherapie	doi: 10.1016/j.biopha.2024.116527
38579174	2024 Apr 4	"Zhong Y, Zheng C, Zhang W, Wu H, Zhang Q, Li D, Ju H, Feng H, Chen Y, Fan Y, Chen W, Wang M, Wang G"	Pan-cancer analysis of Sushi domain-containing protein 4 (SUSD4) and validated in colorectal cancer.	Aging	doi: 10.18632/aging.205712
38577722	2024 Apr	"Jalali P, Samii A, Rezaee M, Shahmoradi A, Pashizeh F, Salehi Z"	UBE2C: A pan-cancer diagnostic and prognostic biomarker revealed through bioinformatics analysis.	"Cancer reports (Hoboken, N.J.)"	doi: 10.1002/cnr2.2032
38577529	2024 Mar 27	"Gan CJ, Zheng Y, Yang B, Cao LM"	Comprehensive prognostic and immune analysis of sterol O-acyltransferase 1 in patients with hepatocellular carcinoma.	World journal of hepatology	doi: 10.4254/wjh.v16.i3.439
38576589	2024 Mar 24	"Wu T, Ji MR, Luo LX"	Mechanisms and potential applications of COPS6 in pan-cancer therapy.	World journal of clinical oncology	doi: 10.5306/wjco.v15.i3.367
38576566	2024 Apr 15	"Wang J, Cai L, Huang G, Wang C, Zhang Z, Xu J"	CENPA and BRCA1 are potential biomarkers associated with immune infiltration in heart failure and pan-cancer.	Heliyon	doi: 10.1016/j.heliyon.2024.e28786
38576381	2024 Mar 20	"Qu L, Che H, Zhao J, Lu X, Ren Z, Wu Y, Liu Q, Guan H"	NCAPD3 is a prognostic biomarker and is correlated with immune infiltrates in glioma.	Histology and histopathology	doi: 10.14670/HH-18-736
38573525	2024 Apr 4	"Yan H, Wu X, Li H, Yu Z, Jin X"	Pan-Cancer Analysis Identifies BCLAF1 as a Potential Biomarker for Renal Cell Carcinoma.	Biochemical genetics	doi: 10.1007/s10528-024-10773-x
38566121	2024 Apr 2	"Shi HH, Mugaanyi J, Lu C, Li Y, Huang J, Dai L"	A paradigm shift in cancer research based on integrative multi-omics approaches: glutaminase serves as a pioneering cuproptosis-related gene in pan-cancer.	BMC women's health	doi: 10.1186/s12905-024-03061-8
38565806	2024 May	"Huang W, Zhang Y, Cao M, Wu Y, Jiao F, Chu Z, Zhou X, Li L, Xu D, Pan X, Guan Y, Huang G, Liu J, Xie F, Wei W"	ImmunoPET imaging of Trop2 in patients with solid tumours.	EMBO molecular medicine	doi: 10.1038/s44321-024-00059-5
38560576	2024	"Liu J, Li W, Lu R, Xu J, Jiang C, Duan J, Zhang L, Wang G, Chen J"	Investigation of the feasibility of NRAV as a biomarker for hepatocellular carcinoma.	Oncology research	doi: 10.32604/or.2023.043575
38560200	2024 Apr 15	"Lu W, Yang Z, Wang M, Li S, Bi H, Yang X"	Identification and verification of AK4 as a protective immune-related biomarker in adipose-derived stem cells and breast cancer.	Heliyon	doi: 10.1016/j.heliyon.2024.e27357
38560150	2024 Apr 15	"Shen C, Wang T, Li K, Fu C, Yang S, Zhang Z, Wu Z, Li Z, Li Z, Lin Y, Zhang Y, Guo J, Fan Z, Hu H"	The prognostic values and immune characteristics of polo-like kinases (PLKs) family: A pan-cancer multi-omics analysis.	Heliyon	doi: 10.1016/j.heliyon.2024.e28048
38559424	2023	"Wang S, Zhang M, Sun H, Li T, Hao J, Fang M, Dong J, Xu H"	Multi-omics analysis of TLCD1 as a promising biomarker in pan-cancer.	Frontiers in cell and developmental biology	doi: 10.3389/fcell.2023.1305906
38557756	2024 Jun 1	"Cheng T, Xie J, Yuan X, Guo M, Wu J, Wang M, Huang Z, Zhang J"	Site-specific Antibody-Nitric Oxide Conjugate HN02 Possesses Improved Antineoplastic and Safety Properties.	"Journal of immunotherapy (Hagerstown, Md. : 1997)"	doi: 10.1097/CJI.0000000000000507
38555596	2024 Mar 31	"Lu F, Gao G, Zhang H, Zhang W"	The relationship between polymorphism of IGF2BP2 gene rs4402960 and risk of pan-cancer: a meta-analysis and a bioinformatics analysis.	"Nucleosides, nucleotides & nucleic acids"	doi: 10.1080/15257770.2024.2333036
38555517	2024 Dec	"Li C, Xiao Y, Kong J, Lai C, Chen Z, Li Z, Xie W"	Elucidating the role of MICAL1 in pan-cancer using integrated bioinformatics and experimental approaches.	Cell adhesion & migration	doi: 10.1080/19336918.2024.2335682
38552217	2024 Mar 28	"Zhong Q, Hong W, Xiong L"	KIF3C: an emerging biomarker with prognostic and immune implications across pan-cancer types and its experiment validation in gastric cancer.	Aging	doi: 10.18632/aging.205694
38548811	2024 Mar 28	"Chowdhury D, Mistry A, Maity D, Bhatia R, Priyadarshi S, Wadan S, Chakraborty S, Haldar S"	Pan-cancer analyses suggest kindlin-associated global mechanochemical alterations.	Communications biology	doi: 10.1038/s42003-024-06044-5
38547613	2024 Jun	"Huang Z, Xu E, Ma X, Wang Y, Zhu J, Zhu K, Hu J, Zhang C"	Low NT5DC2 expression predicts favorable prognosis and suppresses soft tissue sarcoma progression via ECM-receptor interaction pathway.	Translational oncology	doi: 10.1016/j.tranon.2024.101937
38545680	2024 Apr 22	"Chen H, Yan D, Sun J, Zhou M"	Inference of Developmental Hierarchy and Functional States of Exhausted T Cells from Epigenetic Profiles with Deep Learning.	Journal of chemical information and modeling	doi: 10.1021/acs.jcim.4c00261
38544480	2024 Jun	"Liu Y, Yi J, Wu P, Zhang J, Li X, Li J, Zhou L, Liu Y, Xu H, Chen E, Zhang H, Liang M, Liu P, Pan X, Lu Y"	Wemics: A Single-Base Resolution Methylation Quantification Method for Enhanced Prediction of Epigenetic Regulation.	"Advanced science (Weinheim, Baden-Wurttemberg, Germany)"	doi: 10.1002/advs.202308884
38539263	2024 Mar 27	"Lin K, Wang Y, Liu F, You T, Liu X, Liu R, Li Z, Zhen C, Zhang Y, Liu X, Cai H"	Comprehensive analysis of the prognostic value and immunological role of IDO1 gene in pan-cancer.	European journal of medical research	doi: 10.1186/s40001-024-01766-y
38538696	2024 Mar 27	"Zhang W, Zhu Y, Liu H, Zhang Y, Liu H, Adegboro AA, Dang R, Dai L, Wanggou S, Li X"	Pan-cancer evaluation of regulated cell death to predict overall survival and immune checkpoint inhibitor response.	NPJ precision oncology	doi: 10.1038/s41698-024-00570-5
38537539	2024 May 10	"Li Y, Yang W, Liu C, Zhou S, Liu X, Zhang T, Wu L, Li X, Zhang J, Chang E"	SFXN1-mediated immune cell infiltration and tumorigenesis in lung adenocarcinoma: A potential therapeutic target.	International immunopharmacology	doi: 10.1016/j.intimp.2024.111918
38535087	2024 Mar 21	"Zhu Y, Tan L, Luo D, Wang X"	Identification and Validation of T-Cell Exhaustion Signature for Predicting Prognosis and Immune Response in Pancreatic Cancer by Integrated Analysis of Single-Cell and Bulk RNA Sequencing Data.	"Diagnostics (Basel, Switzerland)"	doi: 10.3390/diagnostics14060667
38529307	2024	"Jia Q, Li B, Wang X, Ma Y, Li G"	"Comprehensive analysis of peroxisome proliferator-activated receptors to predict the drug resistance, immune microenvironment, and prognosis in stomach adenocarcinomas."	PeerJ	doi: 10.7717/peerj.17082
38528630	2024 Mar 25	"Zhang Q, Zhang J, Lan T, He J, Lei B, Wang H, Mei Z, Lv C"	"Integrative analysis revealed a correlation of PIAS family genes expression with prognosis, immunomodulation and chemotherapy."	European journal of medical research	doi: 10.1186/s40001-024-01795-7
38528582	2024 Mar 25	"Dong J, Lv Y, Meng D, Shi R, Li F, Guo R, Wang Y, Guo J, Zhang Y"	LncRNA WFDC21P interacts with SEC63 to promote gastric cancer malignant behaviors by regulating calcium homeostasis signaling pathway.	Cancer cell international	doi: 10.1186/s12935-024-03297-2
38526609	2024 Mar 25	"Chang M, Li D, Su L, Ding C, Lu Z, Gao H, Sun F"	Nephroblastoma-specific dysregulated gene SNHG15 with prognostic significance: scRNA-Seq with bulk RNA-Seq data and experimental validation.	Discover oncology	doi: 10.1007/s12672-024-00946-w
38526604	2024 Mar 25	"Zhao X, Zhao R, Wen J, Zhang X, Wu S, Fang J, Ma J, Gao L, Hu Y"	Bioinformatics-based screening and analysis of the key genes involved in the influence of antiangiogenesis on myeloid-derived suppressor cells and their effects on the immune microenvironment.	"Medical oncology (Northwood, London, England)"	doi: 10.1007/s12032-024-02357-x
38523681	2024	"Wang X, Bai Y, Wang B"	Coactosin-Like Protein 1 (COTL1) Could Be an Immunological and Prognostic Biomarker: From Pan-Cancer Analysis to Low-Grade Glioma Validation.	Journal of inflammation research	doi: 10.2147/JIR.S453509
38523659	2024	"Chen J, Zhu H, Chen S, Mi H"	Apolipoprotein E is a Potential Biomarker for Predicting Cancer Prognosis and is Correlated with Immune Infiltration.	OncoTargets and therapy	doi: 10.2147/OTT.S447319
38519438	2024 May	"Cao Y, Fu A, Liu C"	Exploring the NRF2-TP53 Signaling Network Through Machine Learning and Pan-Cancer Analysis: Identifying Potential targets for Cancer Prognosis Related to Oxidative Stress.	Advanced biology	doi: 10.1002/adbi.202300659
38519054	2024 Mar 21	"Cornel AM, van der Sman L, van Dinter JT, Arrabito M, Dunnebach E, van Hoesel M, Kluiver TA, Lopes AP, Dautzenberg NMM, Dekker L, van Rijn JM, van den Beemt DAMH, Buhl JL, du Chatinier A, Barneh F, Lu Y, Lo Nigro L, Krippner-Heidenreich A, Sebesty√©n Z, Kuball J, Hulleman E, Drost J, van Heesch S, Heidenreich OT, Peng WC, Nierkens S"	Targeting pediatric cancers via T-cell recognition of the monomorphic MHC class I-related protein MR1.	Journal for immunotherapy of cancer	doi: 10.1136/jitc-2023-007538
38516269	2024	"Ma M, Li L, Yang SH, Huang C, Zhuang W, Huang S, Xia X, Tang Y, Li Z, Zhao ZB, Chen Q, Qiao G, Lian ZX"	Lymphatic endothelial cell-mediated accumulation of CD177(+)Treg cells suppresses antitumor immunity in human esophageal squamous cell carcinoma.	Oncoimmunology	doi: 10.1080/2162402X.2024.2327692
38509948	2024 Mar 30	"Xie J, Zhu L, Yang X, Yu F, Fan B, Wu Y, Zhou Z, Lin W, Yang Y"	"Combination of theoretical analysis and experiments: Exploring the role of PLA2G7 in human cancers, including renal cancer."	Heliyon	doi: 10.1016/j.heliyon.2024.e27906
38507067	2024 May	"Zhang L, Zhang X, Guan M, Zeng J, Yu F, Lai F"	Identification of a novel ADCC-related gene signature for predicting the prognosis and therapy response in lung adenocarcinoma.	Inflammation research : official journal of the European Histamine Research Society ... [et al.]	doi: 10.1007/s00011-024-01871-y
38507061	2024 Jun 5	"Wang M, Jiang M, Xie A, Zhang N, Xu Y"	Identification of CAF-related lncRNAs at the pan-cancer level represents a potential carcinogenic risk.	Human molecular genetics	doi: 10.1093/hmg/ddae042
38507057	2024 Mar 20	"Li F, Miao J, Liu R, Zhang R, He A"	Pan-cancer analysis of DDIT4 identifying its prognostic value and function in acute myeloid leukemia.	Journal of cancer research and clinical oncology	doi: 10.1007/s00432-024-05676-8
38503865	2024 Mar 19	"Lu KQ, Li ZL, Zhang Q, Yin Q, Zhang YL, Ni WJ, Jiang LZ, He W, Wang B"	"CDK12 is a potential biomarker for diagnosis, prognosis and immunomodulation in pan-cancer."	Scientific reports	doi: 10.1038/s41598-024-56831-7
38503143	2024 Apr	"Nishizaki D, Kurzrock R, Miyashita H, Adashek JJ, Lee S, Nikanjam M, Eskander RN, Patel H, Botta GP, Nesline MK, Pabla S, Conroy JM, DePietro P, Sicklick JK, Kato S"	Viewing the immune checkpoint VISTA: landscape and outcomes across cancers.	ESMO open	doi: 10.1016/j.esmoop.2024.102942
38502355	2024 Mar	"Song Y, Shen T, Sun H, Wang X"	Genome-wide analyses reveal the regulatory roles of DNA methylation-regulated alternative promoter transcripts in breast cancer.	Human genetics	doi: 10.1007/s00439-024-02653-6
38501918	2024 Mar 18	"Chang Q, Zhou X, Mao H, Feng J, Wu X, Zhang Z, Hu Z"	"ALKBH5 promotes hepatocellular carcinoma cell proliferation, migration and invasion by regulating TTI1 expression."	Biomolecules & biomedicine	doi: 10.17305/bb.2024.10247
38499806	2024 Mar 19	"Ji Y, Li C, Wan S, Zhang K, Liu Y, Shi S"	Comprehensive pan-cancer analysis reveals SIRT5 is a predictive biomarker for prognosis and immunotherapy response.	Functional & integrative genomics	doi: 10.1007/s10142-024-01338-7
38499391	2024 Mar 18	"Li Y, Yang X, Jin T, Li Q, Li X, Ma L"	"Correlation between S100A7 and immune characteristics, methylation, tumor stemness and tumor heterogeneity in pan-cancer and its role in chemotherapy resistance in breast cancer."	Aging	doi: 10.18632/aging.205665
38498906	2024 Mar 18	"Wu Y, Guo W, Wang T, Liu Y, Mullor MDMR, Rodr√¨guez RA, Zhao S, Wei R"	"The comprehensive landscape of prognosis, immunity, and function of the GLI family by pan-cancer and single-cell analysis."	Aging	doi: 10.18632/aging.205630
38498249	2024 Mar 18	"Liang D, Tang J, Sun B, He S, Yang D, Ma H, Yun Y, Zhu Y, Wei W, Chen H, Zhao X"	Novel CAR-T cells targeting TRKB for the treatment of solid cancer.	Apoptosis : an international journal on programmed cell death	doi: 10.1007/s10495-024-01936-7
38498101	2024 Mar 18	"Jacob S, Balonov I, Jurinovic V, Heiliger C, Tschaidse T, Kumbrink J, Kirchner T, Werner J, Angele MK, Michl M, Neumann J"	TGFŒ≤ signalling pathway impacts brain metastases profiles in locally advanced colorectal cancer.	Clinical & experimental metastasis	doi: 10.1007/s10585-024-10277-3
38497289	2024 Jun	"Lee HP, Li CJ, Lee CC"	EGFR overexpression and macrophage infiltration correlate with poorer prognosis in HPV-negative oropharyngeal cancer via STAT6 signaling.	Head & neck	doi: 10.1002/hed.27734
38496902	2024 Mar 30	"Wang Y, Wang J, Liu Y, Wang X, Ren M"	Multidimensional pan-cancer analysis of HSPA5 and its validation in the prognostic value of bladder cancer.	Heliyon	doi: 10.1016/j.heliyon.2024.e27184
38496547	2024 Mar 4	"Siwo GH, Singal AG, Waljee AK"	"Pan-cancer molecular signatures connecting aspartate transaminase (AST) to cancer prognosis, metabolic and immune signatures."	bioRxiv : the preprint server for biology	pii: 2024.03.01.582939. doi: 10.1101/2024.03.01.582939
38496356	2024	"Zhou T, Cao J, Tang Q, Jin J, Liang Y, Feng B"	Exploring the role of NAA40 in immune infiltrates and prognostic prediction in hepatocellular carcinoma.	American journal of clinical and experimental immunology	
38495498	2024	"Zhang D, Li J, Lu T, Zhao F, Guo P, Li Z, Duan X, Li Y, Li S, Li J"	Illuminating Shared Genetic Associations Between Oesophageal Carcinoma and Pulmonary Carcinoma Risk.	Journal of Cancer	doi: 10.7150/jca.92899
38494503	2024 Mar 17	"Jin W, Wang G, Dong M, Wang X"	PDCL3 is a prognostic biomarker associated with immune infiltration in hepatocellular carcinoma.	European journal of medical research	doi: 10.1186/s40001-024-01787-7
38493341	2024 Jan 22	"Yang C, Kumar H, Kim P"	"FusionNW, a potential clinical impact assessment of kinases in pan-cancer fusion gene network."	Briefings in bioinformatics	doi: 10.1093/bib/bbae097
38491127	2024 Mar 15	"Yuan Y, Fan Y, Tang W, Sun H, Sun J, Su H, Fan H"	Identification of ALYREF in pan cancer as a novel cancer prognostic biomarker and potential regulatory mechanism in gastric cancer.	Scientific reports	doi: 10.1038/s41598-024-56895-5
38486392	2024 Mar 13	"Luo J, Zhang Q, Wang S, Zheng L, Liu J, Zhang Y, Wang Y, Wang R, Xiao Z, Li Z"	Comprehensive Pan-cancer Analysis of CMPK2 as Biomarker and Prognostic Indicator for Immunotherapy.	Current cancer drug targets	doi: 10.2174/0115680096281451240306062101
38483604	2024 Mar 14	"Ren LK, Lu RS, Fei XB, Chen SJ, Liu P, Zhu CH, Wang X, Pan YZ"	Unveiling the role of PYGB in pancreatic cancer: a novel diagnostic biomarker and gene therapy target.	Journal of cancer research and clinical oncology	doi: 10.1007/s00432-024-05644-2
38482675	2024 Feb	"Brunelli M, Gobbo S, Malpeli G, Sirgiovanni G, Caserta C, Munari E, Francesconi S, Cali√≤ A, Martignoni G, Cimadamore A, Veccia A, Antonelli A, Tucci M, Pierconti F, Hattab IM, Eccher A, Ascani S, Milella M, Buffoni L, Cheng L, Bracarda S"	"TROP-2, NECTIN-4 and predictive biomarkers in sarcomatoid and rhabdoid bladder urothelial carcinoma."	Pathologica	doi: 10.32074/1591-951X-937
38482448	2024 Feb 29	"Li X, Pan Y, Feng S, Xing W, Lin B, Li W, Li M, Zhu M"	"The diagnostic, prognostic, drug sensitivity and ceRNA internet of PPP4R1 in liver hepatocellular carcinoma (LIHC)."	Translational cancer research	doi: 10.21037/tcr-23-1744
38482443	2024 Feb 29	"Zhang G, Wang N, Ma S, Tao P, Cai H"	Comprehensive analysis of the effects of the cuprotosis-associated gene SLC31A1 on patient prognosis and tumor microenvironment in human cancer.	Translational cancer research	doi: 10.21037/tcr-23-1308
38482423	2024 Feb 29	"Zhang H, Liu J"	"NF2 is a candidate diagnosis, prognostic, and immunotherapeutic biomarker: a systematic pan-cancer analysis."	Translational cancer research	doi: 10.21037/tcr-23-1179
38482233	2024 Feb 29	"Zhang H, Liu R, Chen Y, Ma R, Xue Q, Sahu A, Yan X, Gu H"	The prognostic value and potential immunotherapeutic efficacy of ACVR1 in treating gastric cancer.	Journal of gastrointestinal oncology	doi: 10.21037/jgo-23-984
38476239	2024	"Lin W, Zhang S, Gu C, Zhu H, Liu Y"	"GLIPR2: a potential biomarker and therapeutic target unveiled - Insights from extensive pan-cancer analyses, with a spotlight on lung adenocarcinoma."	Frontiers in immunology	doi: 10.3389/fimmu.2024.1280525
38473938	2024 Feb 26	"Viet-Nhi NK, Minh Quan T, Cong Truc V, Anh Bich T, Hoang Nam P, Le NQK, Chen PY, Hung SH"	Multi-Omics Analysis Reveals the IFI6 Gene as a Prognostic Indicator and Therapeutic Target in Esophageal Cancer.	International journal of molecular sciences	doi: 10.3390/ijms25052691
38472489	2024 Mar 12	"Wu R, Li D, Zhang S, Wang J, Chen K, Tuo Z, Miyamoto A, Yoo KH, Wei W, Zhang C, Feng D, Han P"	A pan-cancer analysis of the oncogenic and immunological roles of transglutaminase 1 (TGM1) in human cancer.	Journal of cancer research and clinical oncology	doi: 10.1007/s00432-024-05640-6
38468956	2024 Mar 15	"Tan Z, Li H, Huang Y, Fu S, Wang H, Wang J"	Multi-omics landscape analysis reveals the pan-cancer association of arginine biosynthesis genes with tumor immune evasion and therapy resistance.	Heliyon	doi: 10.1016/j.heliyon.2024.e26804
38468942	2024 Mar 15	"Zheng P, Tan Y, Liu Q, Wu C, Kang J, Liang S, Zhu L, Yan K, Zeng L, Chen B"	"Deciphering the molecular and clinical characteristics of TREM2, HCST, and TYROBP in cancer immunity: A comprehensive pan-cancer study."	Heliyon	doi: 10.1016/j.heliyon.2024.e26993
38467619	2024 Mar 11	"Pandini C, Pagani G, Tassinari M, Vitale E, Bezzecchi E, Saadeldin MK, Doldi V, Giannuzzi G, Mantovani R, Chiara M, Ciarrocchi A, Gandellini P"	The pancancer overexpressed NFYC Antisense 1 controls cell cycle mitotic progression through in cis and in trans modes of action.	Cell death & disease	doi: 10.1038/s41419-024-06576-y
38463813	2024 Mar 15	"Yu F, Lou S, He H, Zhou Y"	Potential role of POFUT1 as a prognostic predictor in low-grade gliomas: Immune microenvironment insights from a pan-cancer analysis.	Heliyon	doi: 10.1016/j.heliyon.2024.e27004
38463578	2024	"Hu H, Umair M, Khan SA, Sani AI, Iqbal S, Khalid F, Sultan R, Abdel-Maksoud MA, Mubarak A, Dawoud TM, Malik A, Saleh IA, Al Amri AA, Algarzae NK, Kodous AS, Hameed Y"	"CDCA8, a mitosis-related gene, as a prospective pan-cancer biomarker: implications for survival prognosis and oncogenic immunology."	American journal of translational research	
38459370	2024 Jun	"Wang B, Zhang S, Wang H, Wang M, Tao Y, Ye M, Fan Z, Wang Y, Liu L"	Identification of EGR4 as a prospective target for inhibiting tumor cell proliferation and a novel biomarker in colorectal cancer.	Cancer gene therapy	doi: 10.1038/s41417-024-00743-1
38455068	2024 Dec	"Wang Z, Chen H, Sun L, Wang X, Xu Y, Tian S, Liu X"	Uncovering the potential of APOD as a biomarker in gastric cancer: A retrospective and multi-center study.	Computational and structural biotechnology journal	doi: 10.1016/j.csbj.2024.02.015
38454924	2024	"Huang Y, Guo W, Zeng Y, Wang X, Fan B, Zhang Y, Yan L, Gu G, Liu Z"	Identification and validation of a gap junction protein related signature for predicting the prognosis of renal clear cell carcinoma.	Frontiers in oncology	doi: 10.3389/fonc.2024.1354049
38453992	2024 Mar 7	"Tao S, Tao K, Cai X"	Pan-cancer analysis reveals PDK family as potential indicators related to prognosis and immune infiltration.	Scientific reports	doi: 10.1038/s41598-024-55455-1
38451188	2024 Mar 6	"Li H, Liu J, Wang S, Xu Y, Tang Q, Ying G"	4-Hydroxyphenylpyruvate Dioxygenase-Like predicts the prognosis and the immunotherapy response of cancers: a pan-cancer analysis.	Aging	doi: 10.18632/aging.205591
38448143	2024	"Srivastava A, Srivastava S"	Multiomics data identifies RSPO2 as a prognostic biomarker in human tumors associated with pan-cancer.	Advances in protein chemistry and structural biology	doi: 10.1016/bs.apcsb.2023.11.011
38444475	2024 Mar 15	"Cai Y, Gao Y, Lv Y, Chen Z, Zhong L, Chen J, Fan Y"	Multicomponent comprehensive confirms that erythroferrone is a molecular biomarker of pan-cancer.	Heliyon	doi: 10.1016/j.heliyon.2024.e26990
38443946	2024 Mar 5	"Zhao Z, Wang R, Wang R, Song J, Ma F, Pan H, Gao C, Wang D, Chen X, Fan X"	Pancancer analysis of the prognostic and immunological role of FANCD2: a potential target for carcinogenesis and survival.	BMC medical genomics	doi: 10.1186/s12920-024-01836-4
38441026	2024	"Ding X, Wan A, Qi X, Jiang K, Liu Z, Chen B"	"ZNF695, A Potential Prognostic Biomarker, Correlates with Im mune Infiltrates in Cervical Squamous Cell Carcinoma and Endoce rvical Adenocarcinoma: Bioinformatic Analysis and Experimental Verification."	Current gene therapy	doi: 10.2174/0115665232285216240228071244
38439884	2024 Mar 15	"Wan R, Chen Y, Feng X, Luo Z, Peng Z, Qi B, Qin H, Lin J, Chen S, Xu L, Tang J, Zhang T"	Exercise potentially prevents colorectal cancer liver metastases by suppressing tumor epithelial cell stemness via RPS4X downregulation.	Heliyon	doi: 10.1016/j.heliyon.2024.e26604
38439879	2024 Mar 15	"Li M, Lu M, Li J, Gui Q, Xia Y, Lu C, Shu H"	Classification of molecular subtypes for colorectal cancer and development of a prognostic model based on necroptosis-related genes.	Heliyon	doi: 10.1016/j.heliyon.2024.e26781
38438492	2024 Mar 4	"Xu X, Zhong D, Wang X, Luo F, Zheng X, Feng T, Chen R, Cheng Y, Wang Y, Ma G"	"Pan-cancer integrated analysis of ANKRD1 expression, prognostic value, and potential implications in cancer."	Scientific reports	doi: 10.1038/s41598-024-56105-2
38436455	2024 Mar 4	"Wang J, Zhou J, Wang M"	Pan-cancer image segmentation based on feature pyramids and Mask R-CNN framework.	Medical physics	doi: 10.1002/mp.17014
38434965	2024	"Niu W, Yang Y, Teng Y, Zhang N, Li X, Qin Y"	Pan-Cancer Analysis of PGAM1 and Its Experimental Validation in Uveal Melanoma Progression.	Journal of Cancer	doi: 10.7150/jca.93398
38432483	2024 Jun	"Murugesan D, Kannan B, As SG, Jayaseelan VP, Arumugam P"	Alteration of SERPINH1 is associated with elevated expression in head and neck squamous cell carcinomas and its clinicopathological significance.	"Journal of stomatology, oral and maxillofacial surgery"	doi: 10.1016/j.jormas.2024.101811
38426619	2024 Feb	"Kamal MV, Damerla RR, Parida P, Rao M, Belle VS, Dikhit PS, Palod A, Gireesh R, Kumar NA"	Expression of PTGS2 along with genes regulating VEGF signalling pathway and association with high-risk factors in locally advanced oral squamous cell carcinoma.	Cancer medicine	doi: 10.1002/cam4.6986
38425404	2024 Feb 15	"Wu HM, Huang YY, Xu YQ, Xiang WL, Yang C, Liu RY, Li D, Guo XF, Zhang ZB, Bei CH, Tan SK, Zhu XN"	Comprehensive analysis of the protein phosphatase 2A regulatory subunit B56Œµ in pan-cancer and its role and mechanism in hepatocellular carcinoma.	World journal of gastrointestinal oncology	doi: 10.4251/wjgo.v16.i2.475
38420810	2024 Feb 22	"Wang L, Liu X"	Multi-Omics Analysis of the Oncogenic Value of Pituitary Tumor-Transforming Gene 1 (PTTG1) in Human Cancers.	Frontiers in bioscience (Landmark edition)	doi: 10.31083/j.fbl2902087
38420804	2024 Feb 23	"Ding JJ, Wu J, Bian HL, Zong Y, Lu B, Ni L"	A Comprehensive Prognostic and Immune Infiltration Analysis of RBM4 in Pan-Cancer.	Frontiers in bioscience (Landmark edition)	doi: 10.31083/j.fbl2902089
38420162	2024 Mar	"Xie J, Deng X, Xie Y, Zhu H, Liu P, Deng W, Ning L, Tang Y, Sun Y, Tang H, Cai M, Xie X, Zou Y"	Multi-omics analysis of disulfidptosis regulators and therapeutic potential reveals glycogen synthase 1 as a disulfidptosis triggering target for triple-negative breast cancer.	MedComm	doi: 10.1002/mco2.502
38419344	2024	"Ding D, Zhong J, Xing Y, Hu Y, Ge X, Yao W"	Bioinformatics and Experimental Study Revealed LINC00982/ miR-183-5p/ABCA8 Axis Suppresses LUAD Progression.	Current cancer drug targets	doi: 10.2174/0115680096266700231107071222
38418183	2024 Feb 23	"Zhao N, Gong TY, Wei ZC, Cong J, Liu ZH, Chen HY"	[En1 promotes cell proliferation and migration via Hedgehog signaling pathway in esophageal squamous cell carcinoma].	Zhonghua zhong liu za zhi [Chinese journal of oncology]	doi: 10.3760/cma.j.cn112152-20231026-00257
38417544	2024 Apr 15	"Wu Z, Liu X, Xie F, Ma C, Lam EW, Kang N, Jin D, Yan J, Jin B"	Comprehensive pan-cancer analysis identifies the RNA-binding protein LRPPRC as a novel prognostic and immune biomarker.	Life sciences	doi: 10.1016/j.lfs.2024.122527
38412692	2024 Mar	"Liu Y, Huang S, Dong G, Hou C, Zhao Y, Zhang D"	Computational identification of DNA damage-relevant lncRNAs for predicting therapeutic efficacy and clinical outcomes in cancer.	Computers in biology and medicine	doi: 10.1016/j.compbiomed.2024.108107
38410236	2024 Jan 31	"Chen H, Xu F, Qin A, Guo S, Zhang G, Yu B, Zheng Q"	A pancancer analysis of histone deacetylase 3 in human tumors.	Translational cancer research	doi: 10.21037/tcr-23-1228
38409225	2024 Apr	"Montero JJ, Trozzo R, Sugden M, √ñllinger R, Belka A, Zhigalova E, Waetzig P, Engleitner T, Schmidt-Supprian M, Saur D, Rad R"	Genome-scale pan-cancer interrogation of lncRNA dependencies using CasRx.	Nature methods	doi: 10.1038/s41592-024-02190-0
38404783	2024 Feb 29	"Jiang S, Yang S, Gao Z, Yin C, Zhang M, Wu Q, Li Y"	"An integrative pan-cancer bioinformatics analysis of MSRB1 and its association with tumor immune microenvironment, prognosis, and immunotherapy."	Heliyon	doi: 10.1016/j.heliyon.2024.e26090
38397931	2024 Jan 31	"Gan X, Zeng Y, Huang J, Chen X, Kang H, Huang S"	Tumor-Derived Sarcopenia Factors Are Diverse in Different Tumor Types: A Pan-Cancer Analysis.	Biomedicines	doi: 10.3390/biomedicines12020329
38397869	2024 Jan 24	"Xu B, Li M, Weng N, Zhou C, Chen Y, Wei J, Fu L"	Pan-Cancer Analysis Reveals Disulfidoptosis-Associated Genes as Promising Immunotherapeutic Targets: Insights Gained from Bulk Omics and Single-Cell Sequencing Validation.	Biomedicines	doi: 10.3390/biomedicines12020267
38396175	2024 Feb 23	"Cicir√≤ Y, Ragusa D, Sala A"	Expression of the checkpoint kinase BUB1 is a predictor of response to cancer therapies.	Scientific reports	doi: 10.1038/s41598-024-55080-y
38396056	2024 Feb 23	"Ding Q, Lin F, Huang Z, Li Y, Cai S, Chen X, Liu H, Qiu S"	Non-coding RNA-related FCGBP downregulation in head and neck squamous cell carcinoma: a novel biomarker for predicting paclitaxel resistance and immunosuppressive microenvironment.	Scientific reports	doi: 10.1038/s41598-024-55210-6
38395184	2024 May	"Luo H, Wang Z"	Pan-cancer analysis reveals potential immunological and prognostic roles of COA6 in human cancers and preliminary exploration of COA6 in bladder cancer.	Cellular signalling	doi: 10.1016/j.cellsig.2024.111111
38385075	2024	"Li R, Yan L, Jiu J, Liu H, Li D, Li X, Zhang J, Li S, Fan Z, Lv Z, Zhu Y, Wang B"	PSME2 offers value as a biomarker of M1 macrophage infiltration in pan-cancer and inhibits osteosarcoma malignant phenotypes.	International journal of biological sciences	doi: 10.7150/ijbs.90226
38385005	2024	"Liu F, Ye J, Wang S, Li Y, Yang Y, Xiao J, Jiang A, Lu X, Zhu Y"	Identification and Verification of Novel Biomarkers Involving Rheumatoid Arthritis with Multimachine Learning Algorithms: An In Silicon and In Vivo Study.	Mediators of inflammation	doi: 10.1155/2024/3188216
38382691	2024 May	"Li S, Zhang Z, Li Z, Yang L, Liu J, Liu Y, Liu Y, Hou Y, Mei M, Huang Y"	CENPA promotes glutamine metabolism and tumor progression by up-regulating SLC38A1 in endometrial cancer.	Cellular signalling	doi: 10.1016/j.cellsig.2024.111110
38382106	2024 Feb 20	"Liu XS, Liu ZY, Zeng DB, Hu J, Chen XL, Gu JL, Gao Y, Pei ZJ"	Functional enrichment analysis reveals the involvement of DARS2 in multiple biological pathways and its potential as a therapeutic target in esophageal carcinoma.	Aging	doi: 10.18632/aging.205569
38380029	2024 Feb 29	"Zhang C, Shen Q, Gao M, Li J, Pang B"	The role of Cyclin Dependent Kinase Inhibitor 3 (CDKN3) in promoting human tumors: Literature review and pan-cancer analysis.	Heliyon	doi: 10.1016/j.heliyon.2024.e26061
38376289	2023 Oct 1	meed Y	Decoding the significant diagnostic and prognostic importance of maternal embryonic leucine zipper kinase in human cancers through deep integrative analyses.	Journal of cancer research and therapeutics	doi: 10.4103/jcrt.jcrt_1902_21
38375034	2024	"Hong Y, Lv Z, Xing Z, Xu H, Chand H, Wang J, Li Y"	Identification of molecular subtypes and diagnostic model in clear cell renal cell carcinoma based on collagen-related genes may predict the response of immunotherapy.	Frontiers in pharmacology	doi: 10.3389/fphar.2024.1325447
38370368	2024	"Cai D, Tian F, Wu M, Tu J, Wang Y"	UBE2C is a diagnosis and therapeutic biomarker involved in immune infiltration of cancers including lung adenocarcinoma.	Journal of Cancer	doi: 10.7150/jca.92473
38369783	2024 Jun 1	"Williams EA, Vegas I, El-Senduny FF, Zhang J, Mata DA, Hiemenz MC, Hughes SR, Sa BC, Kraft GP, Gorbatov N, Foley-Peres K, Sanchez EZ, Milikowski C, Williams KJ, Ross JS, Kurzrock R, Montgomery EA, Lombard DB, Kumar S"	"Pan-cancer Genomic Analysis of AXL Mutations Reveals a Novel, Recurrent, Functionally Activating AXL W451C Alteration Specific to Myxofibrosarcoma."	The American journal of surgical pathology	doi: 10.1097/PAS.0000000000002191
38369634	2024 Feb 18	"Zhang S, Wang Y, Zhang X, Wang M, Wu H, Tao Y, Fan W, Liu L, Wang B, Gao W"	ATP6AP1 as a potential prognostic biomarker in CRC by comprehensive analysis and verification.	Scientific reports	doi: 10.1038/s41598-024-54437-7
38369265	2024 May	"Yang W, Liu Z, Liu T"	"Pan-cancer analysis predicts CANT1 as a potential prognostic, immunologic biomarker."	Cellular signalling	doi: 10.1016/j.cellsig.2024.111107
38369264	2024 May	"Ma C, Zhao H, Sun Y, Ding W, Wang H, Li Y, Gu Z"	"Deciphering disulfidptosis: Uncovering a lncRNA-based signature for prognostic assessment, personalized immunotherapy, and therapeutic agent selection in lung adenocarcinoma patients."	Cellular signalling	doi: 10.1016/j.cellsig.2024.111105
38368674	2024 Apr 9	"Bai G, Mahati S, Tulahong A, Eli M, Mao R"	ZNF468 inhibits irradiation-induced G2/M cell cycle arrest and apoptosis by facilitating AURKA transcription in Esophageal Squamous Cell Carcinoma.	Biochemical and biophysical research communications	doi: 10.1016/j.bbrc.2024.149687
38357945	2024 Feb 14	"Yang GH, Ma XD, Wei XF, Liu RL, Wang C"	A Novel KIF4A-Related Model for Predicting Immunotherapy Response and Prognosis in Kidney Renal Clear Cell Carcinoma.	Combinatorial chemistry & high throughput screening	doi: 10.2174/0113862073296897240212114403
38357305	2024	"Cui Z, Zhai Z, Xie D, Wang L, Cheng F, Lou S, Zou F, Pan R, Chang S, Yao H, She J, Zhang Y, Yang X"	"From genomic spectrum of NTRK genes to adverse effects of its inhibitors, a comprehensive genome-based and real-world pharmacovigilance analysis."	Frontiers in pharmacology	doi: 10.3389/fphar.2024.1329409
38356719	2024	"Fei Q, Zhang X, Wang S, Shu G, Yin G"	A pan-cancer characterization of immune-related NFIL3 identifies potential predictive biomarker.	Journal of Cancer	doi: 10.7150/jca.88765
38352883	2024	"Li P, Wang S, Wan H, Huang Y, Yin K, Sun K, Jin H, Wang Z"	Construction of disulfidptosis-based immune response prediction model with artificial intelligence and validation of the pivotal grouping oncogene c-MET in regulating T cell exhaustion.	Frontiers in immunology	doi: 10.3389/fimmu.2024.1258475
38350726	2024 Feb 13	"Periasamy P, Joseph C, Campos A, Rajandran S, Batho C, Hudson JE, Sivakumaran H, Kore H, Datta K, Yeong J, Gowda H"	Regulation of non-canonical proteins from diverse origins through the nonsense-mediated mRNA decay pathway.	Proteomics	doi: 10.1002/pmic.202300361
38349866	2024 Feb 12	"Liu W, Pang Y, Yu X, Lu D, Yang Y, Meng F, Xu C, Yuan L, Nan Y"	Pan-cancer analysis of NUDT21 and its effect on the proliferation of human head and neck squamous cell carcinoma.	Aging	doi: 10.18632/aging.205539
38344942	2024 Feb 12	"Dar PA, Bhat BA, Mir MA, Chaudhari SY, Shah WA"	"Synthesis, biological profile and computational insights of new derivatives of benzo [B][1,4] diazepines as prospective anticancer agents for inhibiting the CDK-2 protein."	Journal of biomolecular structure & dynamics	doi: 10.1080/07391102.2024.2314270
38343446	2023	"Liu B, Lu LL, Yu L, Mei X, Liu J, Zheng JL, Zhou XL, Lin HY, Zhu XL, Li DL"	Overexpression of tousled-like kinase 2 predicts poor prognosis in HBV-related hepatocellular carcinoma patients after radical resection.	Frontiers in genetics	doi: 10.3389/fgene.2023.1326737
38343327	2024 Jan 22	"Zang Y, Ran X, Yuan J, Wu H, Wang Y, Li H, Teng H, Sun Z"	Genomic hallmarks and therapeutic targets of ribosome biogenesis in cancer.	Briefings in bioinformatics	doi: 10.1093/bib/bbae023
38342956	2024 Feb 12	"Wang B, Jiang J, Luo D, Wang X"	Pan-cancer analysis reveals potential immunological and prognostic roles of METTL7A in human cancers.	Scientific reports	doi: 10.1038/s41598-024-54255-x
38334307	2024 Feb 9	"Wang S, Zhang M, Li T, Chen X, Wu Q, Tian D, Granot Z, Xu H, Hao J, Zhang H"	A Comprehensively Prognostic and Immunological Analysis of PARP11 in Pan-cancer.	Journal of leukocyte biology	pii: qiae030. doi: 10.1093/jleuko/qiae030
38333620	2024	"Wang YP, Ma C, Yang XK, Zhang N, Sun ZG"	Pan-cancer and single-cell analysis reveal THRAP3 as a prognostic and immunological biomarker for multiple cancer types.	Frontiers in genetics	doi: 10.3389/fgene.2024.1277541
38331849	2024 Feb 9	"Van den Eynde A, Gehrcken L, Verhezen T, Lau HW, Hermans C, Lambrechts H, Flieswasser T, Quatannens D, Roex G, Zwaenepoel K, Marcq E, Joye P, Cardenas De La Hoz E, Deben C, Gasparini A, Montay-Gruel P, Le Compte M, Lion E, Lardon F, Van Laere S, Siozopoulou V, Campillo-Davo D, De Waele J, Pauwels P, Jacobs J, Smits E, Van Audenaerde JRM"	IL-15-secreting CAR natural killer cells directed toward the pan-cancer target CD70 eliminate both cancer cells and cancer-associated fibroblasts.	Journal of hematology & oncology	doi: 10.1186/s13045-024-01525-w
38329424	2024 Feb 7	"Xue X, Feng Q, Hong X, Lin Z, Luo Y, Li Y, Yao G, Wang N, Chen L"	Comprehensive analysis of ALG3 in pan-cancer and validation of ALG3 as an onco-immunological biomarker in breast cancer.	Aging	doi: 10.18632/aging.205483
38329122	2024 Feb 8	"Hirai T, Naito Y, Koyama S, Nakanishi Y, Masuhiro K, Izumi M, Kuge T, Naito M, Mizuno Y, Yamaguchi Y, Kang S, Yaga M, Futami Y, Nojima S, Nishide M, Morita T, Kato Y, Tsuda T, Takemoto N, Kinugasa-Katayama Y, Aoshi T, Villa JK, Yamashita K, Enokida T, Hoshi Y, Matsuura K, Tahara M, Takamatsu H, Takeda Y, Inohara H, Kumanogoh A"	Sema6D forward signaling impairs T cell activation and proliferation in head and neck cancer.	JCI insight	doi: 10.1172/jci.insight.166349
38327603	2023 Oct	"Wei Q, Zhou J, Wang X, Li Z, Chen X, Chen K, Jiang R"	Pan-cancer analysis of the prognostic and immunological role of nucleophosmin/nucleoplasmin 3 (NPM3) and its potential significance in lung adenocarcinoma.	Cancer pathogenesis and therapy	doi: 10.1016/j.cpt.2023.06.004
38326407	2024 Feb 7	"Chen B, Chen S, Wang X, Zhang J, Wang H, Li J, Zhang Z, Yu F, Kong W"	"A pan-cancer analysis uncovering the function of CRHBP in tumor immunity, prognosis and drug response: especially its function in LIHC."	Scientific reports	doi: 10.1038/s41598-024-52387-8
38322590	2024	"Shu J, Xia K, Luo H, Wang Y"	DARS-AS1: A Vital Oncogenic LncRNA Regulator with Potential for Cancer Prognosis and Therapy.	International journal of medical sciences	doi: 10.7150/ijms.90611
38322176	2024	"Sun Y, Han L, Sun D"	Comprehensive analysis of EML2 as a prognostic biomarker in colon cancer.	International journal of clinical and experimental pathology	
38321173	2024 Feb 6	"Ling ZN, Hong LL, Wu J, Ling ZQ"	Systematic pan-cancer analyses of the potential function of the Golgi scaffold protein PAQR3.	Scientific reports	doi: 10.1038/s41598-024-53489-z
38321088	2024 Feb 6	"Sheng G, Li F, Jin W, Wang K"	Pan-caner analysis identifies PSMA7 as a targets for amplification at 20q13.33 in tumorigenesis.	Scientific reports	doi: 10.1038/s41598-024-53585-0
38317990	2024 Feb 15	"Yang S, Huan R, Deng M, Luo T, Peng S, Xiong Y, Han G, Liu J, Zhang J, Tan Y"	Pan-cancer analysis revealed prognosis value and immunological relevance of RAMPs.	Heliyon	doi: 10.1016/j.heliyon.2024.e24849
38317154	2024 Feb 5	"Unger M, Kather JN"	A systematic analysis of deep learning in genomics and histopathology for precision oncology.	BMC medical genomics	doi: 10.1186/s12920-024-01796-9
38316615	2024 Feb 5	"Yang XY, Zheng XX, Zhai XJ, Tang T, Yu SC"	Spindle apparatus coiled-coil protein 1 (SPDL1) serves as a novel prognostic biomarker in triple-negative breast cancer.	Proteomics. Clinical applications	doi: 10.1002/prca.202300002
38316065	2024 Mar	"Zaun G, Borchert S, Metzenmacher M, Lueong S, Wiesweg M, Zaun Y, Pogorzelski M, Behrens F, Schildhaus HU, Virchow I, Kasper S, Schuler M, Theurer S, Liffers S"	Comprehensive biomarker diagnostics of unfavorable cancer of unknown primary to identify patients eligible for precision medical therapies.	"European journal of cancer (Oxford, England : 1990)"	doi: 10.1016/j.ejca.2024.113540
38315450	2024 Feb 2	"Zhu M, Wang X, Zhang Q, Xie C, Wang T, Shen K, Zhang L, Zhou X"	"Integrative analysis confirms TPX2 as a novel biomarker for clinical implication, tumor microenvironment, and immunotherapy response across human solid tumors."	Aging	doi: 10.18632/aging.205498
38314298	2024 Feb 15	"Ma N, Zhou T, Li C, Luo X, Chen S, Zhu XY, Chen XH, Liu H, Tian HY, Gao QJ, Zhao DW"	A pan-cancer analysis of the prognosis and immune infiltration of eEF1A2 and its potential function in thyroid carcinoma.	Heliyon	doi: 10.1016/j.heliyon.2024.e24455
38312840	2024	"Dong C, Guo Y, Yang Y, Ge X"	Comprehensive analysis of PSME3: from pan-cancer analysis to experimental validation.	Frontiers in immunology	doi: 10.3389/fimmu.2024.1295693
38312639	2024 Jan 30	"Shao L, Zhu Z, Jia X, Ma Y, Dong C"	A bioinformatic analysis found low expression and clinical significance of ATF4 in breast cancer.	Heliyon	doi: 10.1016/j.heliyon.2024.e24669
38310395	2024 Jan 17	"Hua H, Pan S, Diao H, Cao Y, Qian X, Zhang J"	Increased ACSL6 Expression Predicts a Favorable Prognosis in Triple-negative Breast Cancer.	Current medicinal chemistry	doi: 10.2174/0109298673278846231222103420
38310387	2024 Jan 8	"Guo Y, Zhang R, Xu H, Hong K, Cen K, Mai Y, Wu Z"	Pan-cancer Multi-omics Analysis Reveals HMGN1 as a Potential Prognostic and Immune Infiltration-associated Biomarker.	Current medicinal chemistry	doi: 10.2174/0109298673268718231122103638
38310198	2024 Feb 3	"Liang Y, Zhong G, Li Y, Ren M, Wang A, Ying M, Liu C, Guo Y, Zhang D"	Comprehensive Analysis and Experimental Validation of the Parkinson's Disease Lysosomal Gene ACP2 and Pan-cancer.	Biochemical genetics	doi: 10.1007/s10528-023-10652-x
38309569	2024 Mar	"Liang T, Chen H, Liu L, Zheng Y, Ma Z, Min L, Zhang J, Wu L, Ma J, Liu Z, Zhang Q, Luo K, Hu D, Ji T, Yu X"	Antibody Profiling of Pan-Cancer Viral Proteome Reveals Biomarkers for Nasopharyngeal Carcinoma Diagnosis and Prognosis.	Molecular & cellular proteomics : MCP	doi: 10.1016/j.mcpro.2024.100729
38305786	2024 Jan 31	"Yang J, Wu X, You J"	"Unveiling the potential of HSPA4: a comprehensive pan-cancer analysis of HSPA4 in diagnosis, prognosis, and immunotherapy."	Aging	doi: 10.18632/aging.205496
38305606	2024 Jan	"Wang QY, Liu YJ, Hu Y, Xiao H, Xia LL, Wu YG"	Prognostic and immune roles of UROC1 in human cancers: from mechanism exploration of NAFLD and HCC to pan-cancer analysis.	European review for medical and pharmacological sciences	doi: 10.26355/eurrev_202401_35059
38303608	2024 Feb	"Chen Y, Gao Z, Mohd-Ibrahim I, Yang H, Wu L, Fu Y, Deng Y"	"Pan-cancer analyses of bromodomain containing 9 as a novel therapeutic target reveals its diagnostic, prognostic potential and biological mechanism in human tumours."	Clinical and translational medicine	doi: 10.1002/ctm2.1543
38296907	2024 Jan 31	"Yin HZ, Zhang MC, Wu H"	Clinical and Immunological Significance of ANKRD52 in Pan-Cancer.	Biochemical genetics	doi: 10.1007/s10528-023-10645-w
38293978	2024 Jan 20	"Yao Y, Liu J, Zhou X, Liu Z, Qiu S, He Y, Zhou X"	[A pan-cancer analysis of TTC9A expression level and its correlation with prognosis and immune microenvironment].	Nan fang yi ke da xue xue bao = Journal of Southern Medical University	doi: 10.12122/j.issn.1673-4254.2024.01.09
38293430	2024 Jan 30	"Gui J, Yang L, Liu J, Li Y, Zou M, Sun C, Huang L, Zhu X, Huang K"	"Identifying the prognosis implication, immunotherapy response prediction value, and potential targeted compound inhibitors of integrin subunit Œ±3 (ITGA3) in human cancers."	Heliyon	doi: 10.1016/j.heliyon.2024.e24236
38292838	2024 Jan 15	"Rong Y, Liu SH, Tang MZ, Wu ZH, Ma GR, Li XF, Cai H"	Analysis of the potential biological value of pyruvate dehydrogenase E1 subunit Œ≤ in human cancer.	World journal of gastrointestinal oncology	doi: 10.4251/wjgo.v16.i1.144
38291366	2024 Jan 31	"Wang S, Wu X, Wu X, Cheng J, Chen Q, Qi Z"	Systematic analysis of the role of LDHs subtype in pan-cancer demonstrates the importance of LDHD in the prognosis of hepatocellular carcinoma patients.	BMC cancer	doi: 10.1186/s12885-024-11920-8
38290247	2024 Mar	"Wang T, Rao D, Fu C, Luo Y, Lu J, Liang H, Xia L, Huang W"	Pan-cancer analysis of ABCC1 as a potential prognostic and immunological biomarker.	Translational oncology	doi: 10.1016/j.tranon.2024.101882
38287908	2024 Apr	"Wu M, Xu X, Yang C, An Q, Zhang J, Zhao Z, Feng Y, Liang W, Fu Y, Zhang G, Jiang T"	Regulator of G protein signaling 1 is a potential target in gastric cancer and impacts tumor-associated macrophages.	Cancer science	doi: 10.1111/cas.16083
38287125	2024 Jan 29	"Zhang B, He L, Zhou C, Cheng X, Li Q, Tang Y, Li F, Huang T, Tu S"	A pancancer analysis of the clinical and genomic characteristics of multiple primary cancers.	Scientific reports	doi: 10.1038/s41598-024-52659-3
38281981	2024 Jan 29	"Sun D, Qian H, Li J, Xing P"	Targeting MDM2 in malignancies is a promising strategy for overcoming resistance to anticancer immunotherapy.	Journal of biomedical science	doi: 10.1186/s12929-024-01004-x
38281945	2024 Jan 29	"Li Y, Lou S, Zhang J, Zhao S, Lou G"	m(6)A methylation-mediated regulation of LncRNA MEG3 suppresses ovarian cancer progression through miR-885-5p and the VASH1 pathway.	Journal of translational medicine	doi: 10.1186/s12967-024-04929-x
38281198	2024 Jan 28	"Luo Y, Liu C, Yao Y, Tang X, Yin E, Lu Z, Sun N, He J"	A comprehensive pan-cancer analysis of prognostic value and potential clinical implications of FTH1 in cancer immunotherapy.	"Cancer immunology, immunotherapy : CII"	doi: 10.1007/s00262-023-03625-x
38281029	2024 Jan 27	"Liu J, Yang J, Pan Q, Wang X, Wang X, Chen H, Zheng X, Huang Q"	MDM4 was associated with poor prognosis and tumor-immune infiltration of cancers.	European journal of medical research	doi: 10.1186/s40001-024-01684-z
38280496	2024 Apr 20	"Yu D, Ma H, Li D, Tang H, Li W, Li M"	Identification of SLC12A8 as a valuable prognostic biomarker and immunotherapeutic target by comprehensive pan-cancer analysis.	Gene	doi: 10.1016/j.gene.2024.148211
38274096	2023	"Liu Y, Li X, Chen S, Zhu C, Shi Y, Dang S, Zhang W, Li W"	Pan-cancer analysis of SERPINE family genes as biomarkers of cancer prognosis and response to therapy.	Frontiers in molecular biosciences	doi: 10.3389/fmolb.2023.1277508
38265973	2024 Jan 23	"Niu C, Wen H, Wang S, Shu G, Wang M, Yi H, Guo K, Pan Q, Yin G"	Potential prognosis and immunotherapy predictor TFAP2A in pan-cancer.	Aging	doi: 10.18632/aging.205225
38263929	2024 Jan	"Chen Z, Ding C, Chen J, Zheng S, Li Q"	Pan-cancer analysis revealing the multidimensional expression and prognostic and immunologic roles of TGFB1 in cancer.	The Journal of international medical research	doi: 10.1177/03000605231221361
38261737	2024 Jan 22	"Qi J, Wu G, He M, Xu Y, Yang Z, Ding L, Wang Y, Zhang Z"	CDK16 as a potential prognostic biomarker correlated with an immunosuppressive tumor microenvironment and benefits in enhancing the effectiveness of immunotherapy in human cancers.	Aging	doi: 10.18632/aging.205465
38260566	2024 Jan 3	"Zhang N, Casasent TD, Casasent AK, Kumar SV, Wakefield C, Broom BM, Weinstein JN, Akbani R"	PCA-Plus: Enhanced principal component analysis with illustrative applications to batch effects and their quantitation.	bioRxiv : the preprint server for biology	pii: 2024.01.02.573793. doi: 10.1101/2024.01.02.573793
38260452	2024 Jan 12	"Cheng S, Li L, Yu X"	"PCTA, A PAN-CANCER CELL LINE TRANSCRIPTOME ATLAS."	bioRxiv : the preprint server for biology	pii: 2024.01.10.575087. doi: 10.1101/2024.01.10.575087
38260279	2024 Jan 5	"Shaw TI, Wagner J, Tian L, Wickman E, Poudel S, Wang J, Paul R, Koo SC, Lu M, Sheppard H, Fan Y, O'Neil F, Lau CC, Zhou X, Zhang J, Gottschalk S"	Discovery of immunotherapy targets for pediatric solid and brain tumors by exon-level expression.	Research square	pii: rs.3.rs-3821632. doi: 10.21203/rs.3.rs-3821632/v1
38254834	2024 Jan 13	"Zengin T, Masud BA, √ñnal-S√ºzek T"	TCGAnalyzeR: An Online Pan-Cancer Tool for Integrative Visualization of Molecular and Clinical Data of Cancer Patients for Cohort and Associated Gene Discovery.	Cancers	doi: 10.3390/cancers16020345
38251077	2024	"Mu S, Tian Q, Shen L"	NOP16 promotes hepatocellular carcinoma progression and triggers EMT through the Keap1-Nrf2 signaling pathway.	Technology and health care : official journal of the European Society for Engineering and Medicine	doi: 10.3233/THC-231256
38250074	2023	"Ye F, Wang L, Li Y, Dong C, Zhou L, Xu J"	IL4I1 in M2-like macrophage promotes glioma progression and is a promising target for immunotherapy.	Frontiers in immunology	doi: 10.3389/fimmu.2023.1338244
38245572	2024 Jan 20	"Wang Q, Wang X, Li J, Yin T, Wang Y, Cheng L"	PRKCSH serves as a potential immunological and prognostic biomarker in pan-cancer.	Scientific reports	doi: 10.1038/s41598-024-52153-w
38244710	2024 Apr	"Wang S, Yang J, Huang W, Yu Z, Mao Y, Feng Y, Chen J"	Identification of CERS5 as a molecular biomarker in pan-cancer through multiple omics integrative analysis.	Cellular signalling	doi: 10.1016/j.cellsig.2024.111054
38243719	2024 Feb 1	"Chen Z, Miao Y, Tan Z, Hu Q, Wu Y, Li X, Guo W, Gu J"	scCancer2: data-driven in-depth annotations of the tumor microenvironment at single-level resolution.	"Bioinformatics (Oxford, England)"	doi: 10.1093/bioinformatics/btae028
38243263	2024 Jan 20	"Huang X, Zhang W, Yang N, Zhang Y, Qin T, Ruan H, Zhang Y, Tian C, Mo X, Tang W, Liu J, Zhang B"	Identification of HSP90B1 in pan-cancer hallmarks to aid development of a potential therapeutic target.	Molecular cancer	doi: 10.1186/s12943-023-01920-w
38243238	2024 Jan 20	"Hu Y, Sun H, Shi W, Chen C, Wu X, Jiang Y, Zhang G, Li N, Song J, Zhang H, Shen B, Zeng H, Zhang H"	Immunogram defines four cancer-immunity cycle phenotypes with distinct clonal selection patterns across solid tumors.	Journal of translational medicine	doi: 10.1186/s12967-023-04765-5
38242493	2024 Feb 15	"Yadav G, Kulshreshtha R"	"Pan-cancer analyses identify MIR210HG overexpression, epigenetic regulation and oncogenic role in human tumors and its interaction with the tumor microenvironment."	Life sciences	doi: 10.1016/j.lfs.2024.122438
38241813	2024 Feb 12	"Satoh S, Miyake K, Adachi Y, Masuhiro K, Futami S, Naito Y, Shiroyama T, Koyama S, Yamaguchi Y, Konaka H, Takamatsu H, Okuzaki D, Nagatomo I, Takeda Y, Kumanogoh A"	"Cancer-associated SNRPD3 mutation confers resistance to hypoxia, which is attenuated by DRP1 inhibition."	Biochemical and biophysical research communications	doi: 10.1016/j.bbrc.2024.149511
38239349	2023	"Liu Y, Zhu J, Shen J, Lu Y, Pan K, Tong C, Wang Y"	A pan-cancer analysis of the prognostic implication and oncogenic role of tubulin epsilon and delta complex 2 (TEDC2) in human tumors.	Frontiers in immunology	doi: 10.3389/fimmu.2023.1272108
38238581	2024 Jan 18	"Xu R, Wang Y, Kuang Y"	Multi-omic analyses of m5C readers reveal their characteristics and immunotherapeutic proficiency.	Scientific reports	doi: 10.1038/s41598-024-52110-7
38235873	2024 Jan	"Yan X, Huan J"	CSK may be a potential prognostic biomarker reflecting the immune status of gastric cancer.	European review for medical and pharmacological sciences	doi: 10.26355/eurrev_202401_34907
38235421	2024 Feb	"Wang Y, Gong J, Wang A, Wei J, Peng Z, Wang X, Zhou J, Qi C, Liu D, Li J, Lu M, Lu Z, Cao Y, Yuan J, Zhang R, Fang J, Zhang X, Shen L"	"Disitamab vedotin (RC48) plus toripalimab for HER2-expressing advanced gastric or gastroesophageal junction and other solid tumours: a multicentre, open label, dose escalation and expansion phase 1 trial."	EClinicalMedicine	doi: 10.1016/j.eclinm.2023.102415
38235352	2023 Dec 20	"Qiu J, Zhou T, Wang D, Hong W, Qian D, Meng X, Liu X"	Pan-cancer Analysis Identifies AIMP2 as a Potential Biomarker for Breast Cancer.	Current genomics	doi: 10.2174/0113892029255941231014142050
38234609	2024 Feb	"Fu J, He J, Zhang L, Cheng J, Zhang P, Wei C, Fu J, Li D"	Comprehensive analysis and immunohistochemistry localization of NRP1 expression in pancancer and normal individual tissues in relation to SARS‚ÄëCoV‚Ä? susceptibility.	Experimental and therapeutic medicine	doi: 10.3892/etm.2023.12340
38232915	2024 Mar	"Feng Z, Cui G, Tan J, Liu P, Chen Y, Jiang Z, Han Y, Zeng S, Shen H, Cai C"	Immune infiltration related CENPI associates with the malignant features and drug resistance of lung adenocarcinoma.	Biochimica et biophysica acta. Molecular basis of disease	doi: 10.1016/j.bbadis.2024.167017
38228620	2024 Jan 16	"Hu C, Mi W, Li F, Zhu L, Ou Q, Li M, Li T, Ma Y, Zhang Y, Xu Y"	Optimizing drug combination and mechanism analysis based on risk pathway crosstalk in pan cancer.	Scientific data	doi: 10.1038/s41597-024-02915-y
38225927	2024 Jan 16	"Du Y, Shi J, Wang J, Xun Z, Yu Z, Sun H, Bao R, Zheng J, Li Z, Ye Y"	Integration of Pan-Cancer Single-Cell and Spatial Transcriptomics Reveals Stromal Cell Features and Therapeutic Targets in Tumor Microenvironment.	Cancer research	doi: 10.1158/0008-5472.CAN-23-1418
38221941	2024	"Zhou X, Li Z, Chen H, Jiao M, Zhou C, Li H"	Relevance Analysis of TPM2 and Clinicopathological Characteristics in Breast Cancer.	International journal of general medicine	doi: 10.2147/IJGM.S442004
38217548	2024 Jan 12	"Li X, Guan H, Ma C, Dai Y, Su J, Chen X, Yuan Q, Wang J"	Combination of bulk RNA sequencing and scRNA sequencing uncover the molecular characteristics of MAPK signaling in kidney renal clear cell carcinoma.	Aging	doi: 10.18632/aging.205436
38217545	2024 Jan 12	"Wang G, Li Y, Pan R, Yin X, Jia C, She Y, Huang L, Yang G, Chi H, Tian G"	XRCC1: a potential prognostic and immunological biomarker in LGG based on systematic pan-cancer analysis.	Aging	doi: 10.18632/aging.205426
38213725	2024	"Xue D, Peng H, Li Z, Xu J, Ma H, Dang Y, Li F, Wang G, Sun Q"	Comprehensive analysis reveals TSPEAR as a prognostic biomarker in colorectal cancer.	Journal of Cancer	doi: 10.7150/jca.90028
38213717	2024	"Bao X, Leng X, Yu T, Zhu J, Zhao Y, Tenzindrogar, Yang Z, Wu S, Sun Q"	"Integrated Multi-omics Analyses Identify CDCA5 as a Novel Biomarker Associated with Alternative Splicing, Tumor Microenvironment, and Cell Proliferation in Colon Cancer Via Pan-cancer Analysis."	Journal of Cancer	doi: 10.7150/jca.91082
38213208	2024 Jan 1	"Huang W, Chen Z, Tang Y, Li J, Fan L"	A Pan-Cancer Analysis of the Immunological and Prognostic Role of BUB1 Mitotic Checkpoint Serine/Threonine Kinase B (BUB1B) in Human Tumors.	Clinical laboratory	doi: 10.7754/Clin.Lab.2023.230632
38212657	2024 Jan 11	"Liu X, Yuan R, Peng J, Xu A, Nie X, Tang R, Li G"	SLMO2 is a potential prognostic and immunological biomarker in human pan-cancer.	Scientific reports	doi: 10.1038/s41598-024-51720-5
38211410	2024 Mar	"Zhao Y, Wang J, Liang X, Wang C"	Clinical relevance of ORCs in predicting prognosis and immunotherapy outcomes: A pan-cancer analysis.	Immunobiology	doi: 10.1016/j.imbio.2024.152783
38205335	2024 Jan 15	"Wu W, Li H, Wang Z, Dai Z, Liang X, Luo P, Liu K, Zhang H, Zhang N, Li S, Zhang C"	The tertiary lymphoid structure-related signature identified PTGDS in regulating PD-L1 and promoting the proliferation and migration of glioblastoma.	Heliyon	doi: 10.1016/j.heliyon.2023.e23915
38204987	2024	"Li Y, Jiang M, Wei Y, He X, Li G, Lu C, Ge D"	Integrative Analyses of Pyrimidine Salvage Pathway-Related Genes Revealing the Associations Between UPP1 and Tumor Microenvironment.	Journal of inflammation research	doi: 10.2147/JIR.S440295
38200449	2024 Jan 10	"Tong Y, Zhou T, Wang X, Deng S, Qin L"	Upregulation of CENPM promotes breast carcinogenesis by altering immune infiltration.	BMC cancer	doi: 10.1186/s12885-023-11808-z
38193002	2023 Dec 31	"Wang XQ, Li LL, Lou P, Zhang Q, Wang Y"	Noval ceRNA axis-mediated high expression of TOP2A correlates with poor prognosis and tumor immune infiltration of hepatocellular carcinoma.	Translational cancer research	doi: 10.21037/tcr-23-755
38192979	2023 Dec 31	"Zhao Y, Tang H, Kuai Y, Xu J, Sun B, Li Y"	Identification of the function of FOSB in cholangiocarcinoma using bioinformatics analysis.	Translational cancer research	doi: 10.21037/tcr-23-829
38192978	2023 Dec 31	"Jia L, Chen J, Zhao J, Yang J"	Identification of enhancer RNA AC005515.1 as a novel biomarker for prognosis in esophageal cancer and predictors of immunotherapy response.	Translational cancer research	doi: 10.21037/tcr-23-777
38191418	2024 Jan 9	"Neo SY, Oliveira MMS, Tong L, Chen Y, Chen Z, Cismas S, Burduli N, Malmerfelt A, Teo JKH, Lam KP, Alici E, Girnita L, Wagner AK, Westerberg LS, Lundqvist A"	Natural killer cells drive 4-1BBL positive uveal melanoma towards EMT and metastatic disease.	Journal of experimental & clinical cancer research : CR	doi: 10.1186/s13046-023-02917-5
38190957	2024 Mar	"Huang H, Gu J, Kuang X, Yu Y, Rao B, Fang S, Lu J, Qiu F"	An integrative pan-cancer analysis of WWC family genes and functional validation in lung cancer.	Cellular signalling	doi: 10.1016/j.cellsig.2024.111034
38189855	2024 Jan 5	"Chen S, Du W, Feng K, Liu K, Li C, Li S, Yin H"	AMIGO2 is a pivotal therapeutic target related to M2 polarization of macrophages in pancreatic ductal adenocarcinoma.	Aging	doi: 10.18632/aging.205380
38188295	2023	"Bai Y, Li Y, Qin Y, Yang X, Tseng GC, Kim S, Park HJ"	The microRNA target site profile is a novel biomarker in the immunotherapy response.	Frontiers in oncology	doi: 10.3389/fonc.2023.1225221
38187773	2023 Dec 18	"Khaled ML, Ren Y, Kundalia R, Alhaddad H, Chen Z, Wallace GC, Evernden B, Ospina OE, Hall M, Liu M, Darville LNF, Izumi V, Chen YA, Pilon-Thomas S, Stewart PA, Koomen JM, Corallo SA, Jain MD, Robinson TJ, Locke FL, Forsyth PA, Smalley I"	Branched-chain keto acids promote an immune-suppressive and neurodegenerative microenvironment in leptomeningeal disease.	bioRxiv : the preprint server for biology	pii: 2023.12.18.572239. doi: 10.1101/2023.12.18.572239
38187400	2023	"Du H, Wang H, Luo Y, Jiao Y, Wu J, Dong S, Du D"	"An integrated analysis of bulk and single-cell sequencing data reveals that EMP1(+)/COL3A1(+) fibroblasts contribute to the bone metastasis process in breast, prostate, and renal cancers."	Frontiers in immunology	doi: 10.3389/fimmu.2023.1313536
38182861	2024 Mar	"Leng X, Liu J, Jin A, Zheng H, Wu J, Zhong L, Li Q, Li D"	Multi-omics Analyses Reveal Function of Apolipoprotein E in Alternative Splicing and Tumor Immune Microenvironment in Kidney Renal Clear Cell Carcinoma via Pan-cancer Analysis.	Cell biochemistry and biophysics	doi: 10.1007/s12013-023-01211-7
38180750	2024 Jan 4	"Xie D, Wang S, Jiang B, Li G, Wu G"	The potential value of the Purinergic pathway in the prognostic assessment and clinical application of kidney renal clear cell carcinoma.	Aging	doi: 10.18632/aging.205364
38178862	2023	"Zhao H, Yang K, Yue Z, Chen Z, Cheng Z, Sun H, Song C"	The role of ARL4C in predicting prognosis and immunotherapy drug susceptibility in pan-cancer analysis.	Frontiers in pharmacology	doi: 10.3389/fphar.2023.1288492
38178258	2024 Jan 4	"Wang B, Fan W, Tao Y, Zhang S, Wang J, Fan Z, Liu L, Wang Y"	The impact of SLC10A3 on prognosis and immune microenvironment in colorectal adenocarcinoma.	European journal of medical research	doi: 10.1186/s40001-023-01526-4
38178073	2024 Jan 4	"Xiong Y, Ma Y, Liu K, Lei J, Zhao J, Zhu J, Wang W, Wen M, Wang X, Sun Y, Zhao Y, Han Y, Jiang T, Liu Y"	A gene-based score for the risk stratification of stage IA lung adenocarcinoma.	Respiratory research	doi: 10.1186/s12931-023-02647-4
38177502	2024 Jan	"Bahcheli AT, Min HK, Bayati M, Zhao H, Fortuna A, Dong W, Dzneladze I, Chan J, Chen X, Guevara-Hoyer K, Dirks PB, Huang X, Reimand J"	Pan-cancer ion transport signature reveals functional regulators of glioblastoma aggression.	The EMBO journal	doi: 10.1038/s44318-023-00016-x
38175686	2024 Jan 3	"Wu Y, Zhao S, Guo W, Liu Y, Requena Mullor MDM, Rodr√¨guez RA, Wei R"	Systematic analysis of the prognostic value and immunological function of LTBR in human cancer.	Aging	doi: 10.18632/aging.205356
38175417	2024 Jan 4	"Li Y, Wang T, Jiang F"	Pan-Cancer Analysis of P3H1 and Experimental Validation in Renal Clear Cell Carcinoma.	Applied biochemistry and biotechnology	doi: 10.1007/s12010-023-04845-8
38172162	2024 Jan 3	"Lin W, Zhou J, Ma Y, Ge L, Luo Y, Wang Y, Zhou S"	Prognostic value of mitochondrial CKMT2 in Pan-cancer and its tumor immune correlation analysis.	Scientific reports	doi: 10.1038/s41598-023-46468-3
38171966	2024 Mar	"Zhong J, Amundadottir LT"	Uncovering dark matter in cancer by identifying epigenetic drivers.	Trends in genetics : TIG	doi: 10.1016/j.tig.2023.12.005
38170382	2024 Jan 3	"Sun D, Guo J, Liang W, Chen Y, Wei S, Li A, Wang L, Chen X"	Histone methyltransferase SUV39H2 regulates apoptosis and chemosensitivity in prostate cancer through AKT/FOXO signaling pathway.	"Medical oncology (Northwood, London, England)"	doi: 10.1007/s12032-023-02252-x
38169519	2024	"Wang Y, Guan L, Zhao Y, Yang Y, Wang Y, Feng S, Zou A, Li Y, Zhou B, Zhang D, Che W, Liu F"	A Comprehensive Pan-cancer Analysis of the Biological Immunomodulatory Function and Clinical Value of CD27.	Journal of Cancer	doi: 10.7150/jca.85446
38167828	2024 Mar	"Fan XT, Gao BF, Wang XF, Zhou K, Zhao Y, Yuan J"	Immune infiltration is associated with pan-cancer prognostic biomarker RING finger protein 187.	Journal of molecular recognition : JMR	doi: 10.1002/jmr.3071
38167455	2024 Jan 2	"Zhang R, Zhao W, Zhu X, Liu Y, Ding Q, Yang C, Zou H"	Identification of hub genes distinguishing subtypes in endometrial stromal sarcoma through comprehensive bioinformatics analysis.	Scientific reports	doi: 10.1038/s41598-023-47668-7
38167056	2024 Jan 2	"Cheng Y, Yang X, Wang Y, Li Q, Chen W, Dai R, Zhang C"	Multiple machine-learning tools identifying prognostic biomarkers for acute Myeloid Leukemia.	BMC medical informatics and decision making	doi: 10.1186/s12911-023-02408-9
38166842	2024 Jan 2	"Wang Y, Jiang H, Fu L, Guan L, Yang J, Ren J, Liu F, Li X, Ma X, Li Y, Cai H"	Prognostic value and immunological role of PD-L1 gene in pan-cancer.	BMC cancer	doi: 10.1186/s12885-023-11267-6
38166741	2024 Jan 2	"Xing T, Li L, Rao X, Zhao J, Chen Y, Ju G, Xu Y, Gao X, Dong G, Xia X, Guan Y, Zhang L, Wen Z, Liang J"	ARID1A deficiency promotes progression and potentiates therapeutic antitumour immunity in hepatitis B virus-related hepatocellular carcinoma.	BMC gastroenterology	doi: 10.1186/s12876-023-03059-w
38164286	2024	"Ding Y, Wang H, Wang Q, Jiang H, Li Z, Yu Z, Wang Q, Xu M"	"Pan-Cancer Analysis Reveals SOX2 as a Promising Prognostic and Immunotherapeutic Biomarker Across Various Cancer Types, Including Pancreatic Cancer."	Journal of Cancer	doi: 10.7150/jca.88397
38161736	2024 Dec	"Hu C, Li Q, Xiang L, Luo Y, Li S, An J, Yu X, Zhang G, Chen Y, Wang Y, Wang D"	Comprehensive pan-cancer analysis unveils the significant prognostic value and potential role in immune microenvironment modulation of TRIB3.	Computational and structural biotechnology journal	doi: 10.1016/j.csbj.2023.11.043
38160786	2024 Feb 1	"Hu Y, Jiang N, Wang X, Wu X, Bo J, Chen Y, Zeng Y, Wei X, Zhang H, Li M"	Systematic pan-cancer analysis of RNF186 with potential implications in progression and prognosis in human cancer.	Life sciences	doi: 10.1016/j.lfs.2023.122389
38159260	2024 Mar 11	"Lu Y, Chen R, Zhang H, Sun X, Li X, Yang M, Zhang X"	Prognostic significance and immunological role of HPRT1 in human cancers.	Biomolecules & biomedicine	doi: 10.17305/bb.2023.9775
38157278	2023 Dec 28	"Chen D, Zhou W, Chen J, Wang J"	Comprehensively prognostic and immunological analysis of VRK Serine/Threonine Kinase 1 in pan-cancer and identification in hepatocellular carcinoma.	Aging	doi: 10.18632/aging.205389
38155776	2024 Jan 19	"Zhou X, Xiao B, Jiang M, Rui J"	Pan-cancer analysis identifies EMC6 as a potential target for lung adenocarcinoma.	iScience	doi: 10.1016/j.isci.2023.108648
